(lp0
cnumpy.core.multiarray
_reconstruct
p1
(cnumpy
ndarray
p2
(I0
tp3
S'b'
p4
tp5
Rp6
(I1
(L1065L
L13L
tp7
cnumpy
dtype
p8
(S'O8'
p9
I0
I1
tp10
Rp11
(I3
S'|'
p12
NNNI-1
I-1
I63
tp13
bI01
(lp14
L5L
aL4L
aL3L
aL0L
aL1L
aL0L
aL0L
aL1L
aL0L
aL0L
aL0L
aL0L
aL0L
aL1L
aL4L
aL2L
aL1L
aL1L
aL0L
aL0L
aL1L
aL0L
aL0L
aL0L
aL0L
aL0L
aL3L
aL4L
aL2L
aL1L
aL2L
aL2L
aL0L
aL1L
aL0L
aL0L
aL0L
aL0L
aL0L
aL1L
aL3L
aL2L
aL0L
aL0L
aL0L
aL1L
aL1L
aL0L
aL0L
aL0L
aL0L
aL0L
aL0L
aL5L
aL2L
aL0L
aL1L
aL0L
aL0L
aL1L
aL0L
aL0L
aL0L
aL0L
aL0L
aL5L
aL4L
aL3L
aL0L
aL1L
aL0L
aL0L
aL1L
aL0L
aL0L
aL0L
aL0L
aL0L
aL1L
aL3L
aL2L
aL0L
aL2L
aL0L
aL0L
aL1L
aL0L
aL0L
aL0L
aL0L
aL0L
aL5L
aL3L
aL3L
aL0L
aL2L
aL0L
aL0L
aL1L
aL0L
aL0L
aL0L
aL0L
aL0L
aL2L
aL3L
aL2L
aL0L
aL2L
aL0L
aL0L
aL1L
aL0L
aL0L
aL0L
aL0L
aL0L
aL5L
aL4L
aL3L
aL1L
aL1L
aL0L
aL1L
aL1L
aL0L
aL0L
aL0L
aL0L
aL0L
aL5L
aL4L
aL3L
aL0L
aL1L
aL0L
aL0L
aL0L
aL0L
aL0L
aL0L
aL0L
aL0L
aL0L
aL5L
aL2L
aL0L
aL2L
aL0L
aL0L
aL1L
aL0L
aL0L
aL0L
aL0L
aL0L
aL2L
aL2L
aL1L
aL1L
aL2L
aL0L
aL1L
aL1L
aL0L
aL0L
aL2L
aL0L
aL0L
aL2L
aL4L
aL2L
aL0L
aL0L
aL0L
aL1L
aL1L
aL0L
aL0L
aL0L
aL0L
aL0L
aL2L
aL0L
aL1L
aL0L
aL2L
aL0L
aL0L
aL1L
aL0L
aL0L
aL0L
aL0L
aL0L
aL5L
aL4L
aL3L
aL0L
aL2L
aL0L
aL1L
aL1L
aL0L
aL0L
aL1L
aL0L
aL0L
aL2L
aL0L
aL1L
aL1L
aL2L
aL0L
aL1L
aL1L
aL0L
aL0L
aL0L
aL1L
aL0L
aL1L
aL3L
aL2L
aL0L
aL2L
aL0L
aL0L
aL1L
aL0L
aL0L
aL0L
aL0L
aL0L
aL1L
aL4L
aL2L
aL0L
aL1L
aL0L
aL0L
aL1L
aL0L
aL0L
aL1L
aL0L
aL0L
aL2L
aL0L
aL2L
aL1L
aL2L
aL0L
aL0L
aL1L
aL0L
aL0L
aL0L
aL0L
aL0L
aL4L
aL2L
aL0L
aL1L
aL2L
aL0L
aL1L
aL1L
aL1L
aL0L
aL0L
aL0L
aL0L
aL5L
aL3L
aL3L
aL0L
aL2L
aL0L
aL0L
aL1L
aL0L
aL0L
aL0L
aL0L
aL0L
aL2L
aL4L
aL1L
aL0L
aL2L
aL0L
aL0L
aL1L
aL0L
aL0L
aL0L
aL0L
aL0L
aL0L
aL4L
aL2L
aL0L
aL1L
aL0L
aL0L
aL1L
aL0L
aL0L
aL0L
aL0L
aL0L
aL5L
aL4L
aL3L
aL0L
aL2L
aL0L
aL1L
aL1L
aL0L
aL0L
aL0L
aL0L
aL0L
aL1L
aL4L
aL2L
aL0L
aL1L
aL0L
aL1L
aL1L
aL0L
aL0L
aL0L
aL0L
aL0L
aL1L
aL3L
aL2L
aL0L
aL1L
aL0L
aL0L
aL1L
aL0L
aL0L
aL0L
aL0L
aL0L
aL5L
aL4L
aL3L
aL0L
aL1L
aL0L
aL0L
aL1L
aL0L
aL0L
aL0L
aL0L
aL0L
aL2L
aL3L
aL1L
aL0L
aL2L
aL0L
aL1L
aL1L
aL0L
aL0L
aL0L
aL0L
aL0L
aL4L
aL1L
aL2L
aL0L
aL1L
aL0L
aL1L
aL1L
aL0L
aL0L
aL1L
aL0L
aL0L
aL5L
aL3L
aL3L
aL0L
aL1L
aL0L
aL0L
aL1L
aL0L
aL0L
aL0L
aL0L
aL0L
aL1L
aL4L
aL2L
aL0L
aL1L
aL0L
aL0L
aL1L
aL0L
aL0L
aL0L
aL0L
aL0L
aL0L
aL5L
aL2L
aL0L
aL2L
aL0L
aL0L
aL1L
aL0L
aL0L
aL1L
aL0L
aL0L
aL1L
aL3L
aL1L
aL0L
aL2L
aL0L
aL0L
aL1L
aL0L
aL0L
aL0L
aL0L
aL0L
aL5L
aL4L
aL3L
aL0L
aL2L
aL0L
aL0L
aL1L
aL0L
aL0L
aL0L
aL0L
aL0L
aL5L
aL4L
aL3L
aL0L
aL1L
aL0L
aL0L
aL1L
aL0L
aL0L
aL2L
aL0L
aL0L
aL1L
aL4L
aL2L
aL0L
aL1L
aL0L
aL0L
aL1L
aL0L
aL0L
aL0L
aL0L
aL0L
aL4L
aL2L
aL0L
aL1L
aL2L
aL2L
aL1L
aL1L
aL1L
aL0L
aL1L
aL0L
aL0L
aL2L
aL4L
aL1L
aL0L
aL2L
aL0L
aL1L
aL1L
aL0L
aL0L
aL0L
aL0L
aL0L
aL1L
aL3L
aL2L
aL0L
aL1L
aL0L
aL1L
aL1L
aL0L
aL0L
aL0L
aL0L
aL0L
aL5L
aL3L
aL3L
aL0L
aL1L
aL0L
aL0L
aL1L
aL0L
aL0L
aL0L
aL0L
aL0L
aL1L
aL3L
aL2L
aL0L
aL2L
aL0L
aL0L
aL1L
aL0L
aL0L
aL0L
aL0L
aL0L
aL1L
aL3L
aL2L
aL0L
aL2L
aL0L
aL0L
aL1L
aL0L
aL0L
aL1L
aL0L
aL0L
aL2L
aL0L
aL1L
aL0L
aL1L
aL0L
aL1L
aL1L
aL0L
aL0L
aL0L
aL0L
aL0L
aL5L
aL3L
aL3L
aL0L
aL2L
aL0L
aL1L
aL1L
aL0L
aL0L
aL0L
aL0L
aL0L
aL2L
aL3L
aL2L
aL0L
aL1L
aL0L
aL0L
aL1L
aL0L
aL0L
aL0L
aL0L
aL0L
aL5L
aL4L
aL3L
aL0L
aL0L
aL0L
aL1L
aL1L
aL0L
aL0L
aL0L
aL0L
aL0L
aL0L
aL5L
aL2L
aL0L
aL2L
aL0L
aL0L
aL1L
aL0L
aL0L
aL0L
aL0L
aL0L
aL2L
aL3L
aL1L
aL0L
aL2L
aL0L
aL0L
aL1L
aL0L
aL0L
aL0L
aL0L
aL0L
aL2L
aL0L
aL2L
aL0L
aL2L
aL0L
aL0L
aL1L
aL0L
aL0L
aL1L
aL0L
aL0L
aL5L
aL3L
aL3L
aL0L
aL1L
aL0L
aL0L
aL0L
aL0L
aL0L
aL0L
aL0L
aL0L
aL2L
aL0L
aL1L
aL0L
aL1L
aL0L
aL1L
aL1L
aL0L
aL0L
aL0L
aL0L
aL0L
aL5L
aL4L
aL3L
aL0L
aL1L
aL0L
aL0L
aL0L
aL0L
aL0L
aL0L
aL0L
aL0L
aL2L
aL3L
aL2L
aL0L
aL2L
aL0L
aL0L
aL1L
aL0L
aL0L
aL1L
aL0L
aL0L
aL5L
aL0L
aL3L
aL0L
aL1L
aL0L
aL1L
aL1L
aL0L
aL0L
aL0L
aL0L
aL0L
aL5L
aL4L
aL3L
aL0L
aL1L
aL0L
aL0L
aL1L
aL0L
aL0L
aL0L
aL0L
aL0L
aL1L
aL3L
aL2L
aL0L
aL2L
aL0L
aL0L
aL1L
aL0L
aL0L
aL0L
aL0L
aL0L
aL2L
aL0L
aL1L
aL0L
aL1L
aL0L
aL1L
aL1L
aL0L
aL0L
aL4L
aL0L
aL0L
aL5L
aL0L
aL3L
aL0L
aL1L
aL0L
aL0L
aL0L
aL0L
aL0L
aL0L
aL0L
aL0L
aL5L
aL4L
aL3L
aL0L
aL1L
aL0L
aL0L
aL0L
aL0L
aL0L
aL0L
aL0L
aL0L
aL1L
aL4L
aL2L
aL1L
aL1L
aL0L
aL0L
aL1L
aL0L
aL0L
aL0L
aL0L
aL0L
aL0L
aL5L
aL2L
aL0L
aL1L
aL0L
aL1L
aL1L
aL0L
aL0L
aL0L
aL0L
aL0L
aL2L
aL4L
aL2L
aL0L
aL2L
aL0L
aL0L
aL1L
aL0L
aL0L
aL1L
aL0L
aL0L
aL1L
aL4L
aL2L
aL0L
aL2L
aL0L
aL0L
aL1L
aL0L
aL0L
aL0L
aL0L
aL0L
aL2L
aL4L
aL1L
aL0L
aL2L
aL0L
aL0L
aL1L
aL0L
aL0L
aL0L
aL0L
aL0L
aL5L
aL4L
aL3L
aL0L
aL2L
aL0L
aL0L
aL0L
aL0L
aL0L
aL0L
aL0L
aL0L
aL0L
aL5L
aL2L
aL0L
aL2L
aL0L
aL0L
aL1L
aL0L
aL0L
aL0L
aL0L
aL0L
aL3L
aL1L
aL2L
aL1L
aL1L
aL1L
aL1L
aL1L
aL0L
aL0L
aL0L
aL0L
aL0L
aL2L
aL0L
aL1L
aL0L
aL1L
aL0L
aL0L
aL1L
aL0L
aL0L
aL0L
aL0L
aL0L
aL1L
aL3L
aL2L
aL0L
aL1L
aL0L
aL0L
aL1L
aL0L
aL0L
aL0L
aL0L
aL0L
aL5L
aL4L
aL3L
aL0L
aL1L
aL0L
aL0L
aL0L
aL0L
aL0L
aL1L
aL0L
aL0L
aL0L
aL5L
aL2L
aL0L
aL0L
aL0L
aL0L
aL1L
aL0L
aL0L
aL0L
aL0L
aL0L
aL5L
aL4L
aL3L
aL0L
aL1L
aL0L
aL0L
aL1L
aL0L
aL0L
aL0L
aL0L
aL0L
aL3L
aL0L
aL0L
aL1L
aL1L
aL0L
aL1L
aL1L
aL0L
aL0L
aL0L
aL0L
aL0L
aL0L
aL5L
aL2L
aL0L
aL1L
aL0L
aL1L
aL1L
aL0L
aL0L
aL0L
aL0L
aL0L
aL2L
aL0L
aL1L
aL0L
aL1L
aL0L
aL0L
aL1L
aL0L
aL0L
aL0L
aL0L
aL0L
aL5L
aL4L
aL3L
aL0L
aL1L
aL0L
aL0L
aL1L
aL0L
aL0L
aL0L
aL0L
aL0L
aL1L
aL4L
aL2L
aL0L
aL2L
aL0L
aL0L
aL1L
aL0L
aL0L
aL0L
aL0L
aL0L
aL3L
aL0L
aL2L
aL0L
aL1L
aL0L
aL1L
aL1L
aL0L
aL0L
aL0L
aL0L
aL0L
aL2L
aL0L
aL1L
aL1L
aL2L
aL0L
aL1L
aL1L
aL0L
aL0L
aL0L
aL0L
aL0L
aL1L
aL1L
aL2L
aL0L
aL2L
aL0L
aL1L
aL1L
aL0L
aL0L
aL0L
aL0L
aL0L
aL5L
aL4L
aL3L
aL0L
aL1L
aL0L
aL0L
aL1L
aL0L
aL0L
aL0L
aL0L
aL0L
aL1L
aL3L
aL2L
aL0L
aL2L
aL0L
aL0L
aL1L
aL0L
aL0L
aL0L
aL0L
aL0L
aL3L
aL4L
aL2L
aL0L
aL2L
aL0L
aL0L
aL1L
aL0L
aL0L
aL6L
aL0L
aL0L
aL2L
aL4L
aL2L
aL0L
aL0L
aL0L
aL0L
aL1L
aL0L
aL0L
aL0L
aL0L
aL0L
aL2L
aL3L
aL2L
aL0L
aL2L
aL0L
aL0L
aL1L
aL0L
aL0L
aL0L
aL0L
aL0L
aL5L
aL4L
aL3L
aL0L
aL1L
aL0L
aL1L
aL0L
aL0L
aL0L
aL0L
aL0L
aL0L
aL2L
aL4L
aL2L
aL0L
aL1L
aL0L
aL1L
aL1L
aL0L
aL0L
aL1L
aL0L
aL0L
aL1L
aL4L
aL2L
aL0L
aL1L
aL0L
aL0L
aL1L
aL0L
aL0L
aL0L
aL0L
aL0L
aL3L
aL0L
aL2L
aL1L
aL1L
aL0L
aL1L
aL1L
aL0L
aL0L
aL0L
aL0L
aL0L
aL0L
aL5L
aL2L
aL0L
aL1L
aL0L
aL0L
aL1L
aL0L
aL0L
aL0L
aL0L
aL0L
aL5L
aL4L
aL3L
aL0L
aL0L
aL0L
aL1L
aL1L
aL0L
aL0L
aL1L
aL0L
aL0L
aL1L
aL3L
aL2L
aL1L
aL1L
aL0L
aL0L
aL1L
aL0L
aL0L
aL0L
aL0L
aL0L
aL5L
aL4L
aL3L
aL0L
aL1L
aL0L
aL0L
aL1L
aL0L
aL0L
aL1L
aL0L
aL0L
aL5L
aL4L
aL3L
aL1L
aL1L
aL0L
aL0L
aL0L
aL0L
aL0L
aL1L
aL0L
aL0L
aL3L
aL0L
aL2L
aL0L
aL2L
aL0L
aL0L
aL1L
aL0L
aL0L
aL2L
aL0L
aL0L
aL5L
aL0L
aL3L
aL0L
aL1L
aL0L
aL0L
aL0L
aL0L
aL0L
aL0L
aL0L
aL0L
aL5L
aL4L
aL3L
aL0L
aL1L
aL0L
aL1L
aL0L
aL0L
aL0L
aL0L
aL0L
aL0L
aL0L
aL5L
aL2L
aL0L
aL1L
aL0L
aL0L
aL1L
aL0L
aL0L
aL0L
aL0L
aL0L
aL5L
aL4L
aL3L
aL0L
aL1L
aL0L
aL1L
aL0L
aL0L
aL0L
aL0L
aL0L
aL0L
aL1L
aL3L
aL2L
aL0L
aL2L
aL0L
aL0L
aL1L
aL0L
aL0L
aL0L
aL0L
aL0L
aL5L
aL4L
aL3L
aL0L
aL2L
aL0L
aL0L
aL1L
aL0L
aL0L
aL0L
aL0L
aL0L
aL5L
aL4L
aL3L
aL0L
aL1L
aL0L
aL1L
aL1L
aL0L
aL0L
aL0L
aL0L
aL0L
aL2L
aL0L
aL1L
aL1L
aL2L
aL1L
aL0L
aL1L
aL0L
aL0L
aL0L
aL0L
aL0L
aL5L
aL4L
aL3L
aL0L
aL1L
aL0L
aL1L
aL1L
aL0L
aL0L
aL0L
aL0L
aL0L
aL0L
aL5L
aL2L
aL0L
aL2L
aL0L
aL0L
aL1L
aL0L
aL0L
aL0L
aL0L
aL0L
aL1L
aL4L
aL2L
aL1L
aL0L
aL0L
aL0L
aL1L
aL0L
aL0L
aL0L
aL0L
aL0L
aL1L
aL3L
aL2L
aL0L
aL2L
aL0L
aL0L
aL1L
aL0L
aL0L
aL0L
aL0L
aL0L
aL5L
aL4L
aL3L
aL0L
aL0L
aL0L
aL0L
aL1L
aL0L
aL0L
aL0L
aL0L
aL0L
aL2L
aL4L
aL2L
aL0L
aL1L
aL0L
aL1L
aL1L
aL0L
aL0L
aL0L
aL0L
aL0L
aL5L
aL4L
aL3L
aL0L
aL2L
aL0L
aL0L
aL1L
aL0L
aL0L
aL0L
aL0L
aL0L
aL2L
aL0L
aL1L
aL0L
aL2L
aL0L
aL1L
aL1L
aL0L
aL0L
aL3L
aL0L
aL0L
aL2L
aL0L
aL1L
aL0L
aL2L
aL0L
aL0L
aL1L
aL0L
aL0L
aL0L
aL0L
aL0L
aL2L
aL0L
aL1L
aL0L
aL2L
aL0L
aL0L
aL1L
aL0L
aL0L
aL0L
aL0L
aL0L
aL2L
aL3L
aL2L
aL0L
aL1L
aL0L
aL0L
aL1L
aL0L
aL0L
aL0L
aL0L
aL0L
aL2L
aL0L
aL2L
aL0L
aL2L
aL0L
aL0L
aL1L
aL0L
aL0L
aL1L
aL0L
aL0L
aL2L
aL0L
aL1L
aL1L
aL2L
aL0L
aL0L
aL1L
aL0L
aL0L
aL0L
aL0L
aL0L
aL5L
aL4L
aL3L
aL0L
aL1L
aL0L
aL0L
aL1L
aL0L
aL0L
aL0L
aL0L
aL0L
aL5L
aL4L
aL3L
aL0L
aL1L
aL0L
aL1L
aL1L
aL0L
aL0L
aL0L
aL0L
aL0L
aL1L
aL3L
aL2L
aL0L
aL2L
aL0L
aL0L
aL1L
aL0L
aL0L
aL0L
aL0L
aL0L
aL0L
aL5L
aL2L
aL0L
aL2L
aL0L
aL0L
aL1L
aL0L
aL0L
aL0L
aL0L
aL0L
aL1L
aL4L
aL2L
aL0L
aL2L
aL0L
aL0L
aL1L
aL0L
aL0L
aL0L
aL0L
aL0L
aL1L
aL3L
aL2L
aL0L
aL2L
aL0L
aL0L
aL1L
aL0L
aL0L
aL0L
aL0L
aL0L
aL3L
aL2L
aL0L
aL0L
aL2L
aL0L
aL1L
aL1L
aL0L
aL0L
aL0L
aL1L
aL0L
aL5L
aL3L
aL3L
aL0L
aL2L
aL0L
aL1L
aL0L
aL0L
aL0L
aL0L
aL0L
aL0L
aL3L
aL4L
aL2L
aL0L
aL1L
aL0L
aL0L
aL1L
aL0L
aL0L
aL2L
aL0L
aL0L
aL3L
aL2L
aL1L
aL1L
aL2L
aL0L
aL1L
aL1L
aL1L
aL0L
aL1L
aL0L
aL0L
aL0L
aL5L
aL2L
aL0L
aL2L
aL0L
aL0L
aL1L
aL0L
aL0L
aL0L
aL0L
aL0L
aL2L
aL1L
aL2L
aL0L
aL1L
aL0L
aL1L
aL1L
aL0L
aL0L
aL0L
aL0L
aL0L
aL0L
aL5L
aL2L
aL0L
aL2L
aL0L
aL0L
aL1L
aL0L
aL0L
aL0L
aL0L
aL0L
aL5L
aL3L
aL3L
aL0L
aL2L
aL0L
aL1L
aL1L
aL0L
aL0L
aL0L
aL0L
aL0L
aL1L
aL3L
aL2L
aL0L
aL1L
aL0L
aL0L
aL1L
aL0L
aL0L
aL0L
aL0L
aL0L
aL5L
aL4L
aL3L
aL0L
aL1L
aL0L
aL0L
aL1L
aL0L
aL0L
aL0L
aL0L
aL0L
aL5L
aL4L
aL3L
aL0L
aL1L
aL0L
aL0L
aL1L
aL0L
aL0L
aL0L
aL0L
aL0L
aL3L
aL0L
aL0L
aL0L
aL2L
aL0L
aL0L
aL1L
aL0L
aL0L
aL3L
aL1L
aL0L
aL2L
aL3L
aL2L
aL0L
aL2L
aL0L
aL0L
aL1L
aL0L
aL0L
aL0L
aL0L
aL0L
aL5L
aL3L
aL3L
aL0L
aL2L
aL0L
aL0L
aL1L
aL0L
aL0L
aL0L
aL0L
aL0L
aL0L
aL5L
aL2L
aL0L
aL0L
aL0L
aL0L
aL1L
aL0L
aL0L
aL0L
aL0L
aL0L
aL1L
aL0L
aL1L
aL0L
aL1L
aL0L
aL1L
aL1L
aL0L
aL0L
aL0L
aL0L
aL0L
aL5L
aL4L
aL3L
aL0L
aL1L
aL0L
aL0L
aL1L
aL0L
aL0L
aL0L
aL0L
aL0L
aL4L
aL0L
aL0L
aL1L
aL2L
aL0L
aL1L
aL1L
aL1L
aL0L
aL2L
aL0L
aL0L
aL3L
aL0L
aL1L
aL0L
aL1L
aL0L
aL1L
aL1L
aL0L
aL0L
aL0L
aL0L
aL0L
aL5L
aL4L
aL3L
aL0L
aL2L
aL0L
aL0L
aL0L
aL0L
aL0L
aL0L
aL0L
aL0L
aL1L
aL4L
aL2L
aL0L
aL1L
aL0L
aL1L
aL1L
aL0L
aL0L
aL0L
aL0L
aL0L
aL5L
aL4L
aL3L
aL0L
aL1L
aL0L
aL0L
aL1L
aL0L
aL0L
aL0L
aL0L
aL0L
aL1L
aL0L
aL2L
aL0L
aL1L
aL0L
aL1L
aL1L
aL0L
aL0L
aL0L
aL0L
aL0L
aL1L
aL0L
aL2L
aL0L
aL2L
aL0L
aL1L
aL1L
aL0L
aL0L
aL0L
aL0L
aL0L
aL3L
aL4L
aL2L
aL0L
aL1L
aL0L
aL1L
aL1L
aL0L
aL0L
aL0L
aL0L
aL0L
aL5L
aL0L
aL3L
aL0L
aL2L
aL0L
aL0L
aL1L
aL0L
aL0L
aL0L
aL0L
aL0L
aL3L
aL0L
aL2L
aL1L
aL1L
aL0L
aL1L
aL1L
aL0L
aL0L
aL4L
aL0L
aL0L
aL5L
aL4L
aL3L
aL0L
aL1L
aL0L
aL0L
aL1L
aL0L
aL0L
aL0L
aL0L
aL0L
aL5L
aL4L
aL3L
aL1L
aL1L
aL0L
aL0L
aL1L
aL0L
aL0L
aL0L
aL0L
aL0L
aL5L
aL4L
aL3L
aL0L
aL1L
aL0L
aL1L
aL1L
aL0L
aL0L
aL0L
aL0L
aL0L
aL5L
aL3L
aL3L
aL0L
aL1L
aL0L
aL0L
aL1L
aL0L
aL0L
aL0L
aL0L
aL0L
aL5L
aL4L
aL3L
aL0L
aL2L
aL0L
aL0L
aL0L
aL0L
aL0L
aL0L
aL0L
aL0L
aL0L
aL5L
aL2L
aL0L
aL2L
aL0L
aL0L
aL1L
aL0L
aL0L
aL0L
aL0L
aL0L
aL1L
aL3L
aL1L
aL0L
aL2L
aL0L
aL0L
aL1L
aL0L
aL0L
aL0L
aL0L
aL0L
aL1L
aL3L
aL2L
aL0L
aL1L
aL0L
aL1L
aL1L
aL0L
aL0L
aL0L
aL0L
aL0L
aL2L
aL1L
aL2L
aL0L
aL2L
aL0L
aL1L
aL1L
aL0L
aL0L
aL0L
aL0L
aL0L
aL5L
aL3L
aL3L
aL0L
aL1L
aL0L
aL0L
aL1L
aL0L
aL0L
aL0L
aL0L
aL0L
aL0L
aL5L
aL2L
aL0L
aL2L
aL0L
aL0L
aL1L
aL0L
aL0L
aL0L
aL0L
aL0L
aL4L
aL0L
aL1L
aL0L
aL1L
aL0L
aL1L
aL1L
aL1L
aL0L
aL1L
aL0L
aL0L
aL0L
aL5L
aL1L
aL1L
aL1L
aL0L
aL1L
aL1L
aL0L
aL0L
aL0L
aL0L
aL0L
aL2L
aL3L
aL2L
aL0L
aL1L
aL0L
aL0L
aL1L
aL0L
aL0L
aL0L
aL0L
aL0L
aL0L
aL5L
aL2L
aL0L
aL2L
aL0L
aL0L
aL1L
aL0L
aL0L
aL0L
aL0L
aL0L
aL5L
aL4L
aL3L
aL0L
aL1L
aL0L
aL1L
aL1L
aL0L
aL0L
aL0L
aL0L
aL0L
aL1L
aL3L
aL2L
aL0L
aL1L
aL0L
aL0L
aL1L
aL0L
aL0L
aL0L
aL0L
aL0L
aL5L
aL4L
aL3L
aL0L
aL1L
aL0L
aL0L
aL1L
aL0L
aL0L
aL0L
aL0L
aL0L
aL2L
aL0L
aL2L
aL0L
aL0L
aL0L
aL1L
aL1L
aL0L
aL0L
aL0L
aL0L
aL0L
aL4L
aL1L
aL2L
aL0L
aL1L
aL0L
aL0L
aL1L
aL0L
aL0L
aL0L
aL0L
aL0L
aL3L
aL1L
aL2L
aL1L
aL1L
aL0L
aL1L
aL1L
aL0L
aL0L
aL1L
aL0L
aL0L
aL2L
aL3L
aL2L
aL0L
aL2L
aL0L
aL0L
aL1L
aL0L
aL0L
aL0L
aL0L
aL0L
aL1L
aL3L
aL2L
aL0L
aL2L
aL0L
aL0L
aL1L
aL0L
aL0L
aL0L
aL0L
aL0L
aL3L
aL0L
aL1L
aL0L
aL2L
aL0L
aL1L
aL1L
aL0L
aL0L
aL0L
aL0L
aL0L
aL2L
aL3L
aL2L
aL0L
aL2L
aL0L
aL0L
aL1L
aL0L
aL0L
aL0L
aL1L
aL0L
aL3L
aL4L
aL1L
aL0L
aL2L
aL0L
aL1L
aL1L
aL0L
aL0L
aL5L
aL1L
aL0L
aL1L
aL0L
aL2L
aL0L
aL1L
aL0L
aL1L
aL1L
aL0L
aL0L
aL0L
aL0L
aL0L
aL5L
aL3L
aL3L
aL0L
aL1L
aL0L
aL0L
aL1L
aL0L
aL0L
aL0L
aL0L
aL0L
aL1L
aL4L
aL1L
aL0L
aL2L
aL0L
aL0L
aL1L
aL0L
aL0L
aL0L
aL0L
aL0L
aL5L
aL4L
aL3L
aL0L
aL1L
aL0L
aL1L
aL0L
aL0L
aL0L
aL0L
aL0L
aL0L
aL1L
aL0L
aL2L
aL0L
aL2L
aL0L
aL1L
aL1L
aL0L
aL0L
aL0L
aL0L
aL0L
aL0L
aL5L
aL2L
aL0L
aL0L
aL0L
aL0L
aL1L
aL0L
aL0L
aL0L
aL0L
aL0L
aL4L
aL0L
aL0L
aL1L
aL1L
aL0L
aL1L
aL1L
aL0L
aL0L
aL1L
aL0L
aL0L
aL5L
aL4L
aL3L
aL0L
aL1L
aL0L
aL0L
aL0L
aL0L
aL0L
aL0L
aL0L
aL0L
aL5L
aL4L
aL3L
aL0L
aL1L
aL0L
aL1L
aL1L
aL0L
aL0L
aL0L
aL0L
aL0L
aL0L
aL5L
aL2L
aL0L
aL2L
aL0L
aL0L
aL1L
aL0L
aL0L
aL0L
aL0L
aL0L
aL2L
aL3L
aL2L
aL0L
aL2L
aL0L
aL1L
aL1L
aL0L
aL0L
aL0L
aL0L
aL0L
aL5L
aL0L
aL3L
aL0L
aL1L
aL0L
aL1L
aL1L
aL0L
aL0L
aL0L
aL0L
aL0L
aL0L
aL5L
aL2L
aL0L
aL2L
aL0L
aL0L
aL1L
aL0L
aL0L
aL0L
aL0L
aL0L
aL5L
aL3L
aL3L
aL0L
aL1L
aL0L
aL0L
aL1L
aL0L
aL0L
aL0L
aL0L
aL0L
aL5L
aL4L
aL3L
aL0L
aL1L
aL0L
aL0L
aL1L
aL0L
aL0L
aL0L
aL0L
aL0L
aL1L
aL3L
aL2L
aL0L
aL1L
aL0L
aL0L
aL1L
aL0L
aL0L
aL0L
aL0L
aL0L
aL5L
aL3L
aL3L
aL0L
aL2L
aL0L
aL0L
aL1L
aL0L
aL0L
aL0L
aL0L
aL0L
aL3L
aL0L
aL2L
aL1L
aL1L
aL0L
aL1L
aL1L
aL0L
aL0L
aL1L
aL0L
aL0L
aL0L
aL5L
aL2L
aL0L
aL2L
aL0L
aL0L
aL1L
aL0L
aL0L
aL0L
aL0L
aL0L
aL1L
aL0L
aL2L
aL0L
aL2L
aL0L
aL0L
aL1L
aL0L
aL0L
aL0L
aL0L
aL0L
aL1L
aL3L
aL2L
aL0L
aL2L
aL0L
aL0L
aL1L
aL0L
aL0L
aL0L
aL0L
aL0L
aL5L
aL3L
aL3L
aL0L
aL0L
aL0L
aL1L
aL1L
aL0L
aL0L
aL0L
aL0L
aL0L
aL2L
aL3L
aL2L
aL0L
aL1L
aL0L
aL0L
aL1L
aL0L
aL0L
aL0L
aL0L
aL0L
aL2L
aL0L
aL2L
aL0L
aL2L
aL0L
aL1L
aL1L
aL0L
aL0L
aL0L
aL0L
aL0L
aL4L
aL0L
aL1L
aL1L
aL1L
aL0L
aL1L
aL1L
aL0L
aL0L
aL3L
aL0L
aL0L
aL5L
aL3L
aL3L
aL0L
aL1L
aL0L
aL0L
aL1L
aL0L
aL0L
aL0L
aL0L
aL0L
aL0L
aL5L
aL2L
aL0L
aL1L
aL0L
aL0L
aL1L
aL0L
aL0L
aL0L
aL0L
aL0L
aL0L
aL5L
aL2L
aL0L
aL1L
aL0L
aL0L
aL1L
aL0L
aL0L
aL0L
aL0L
aL0L
aL1L
aL4L
aL2L
aL0L
aL2L
aL0L
aL0L
aL1L
aL0L
aL0L
aL0L
aL0L
aL0L
aL0L
aL5L
aL2L
aL0L
aL2L
aL0L
aL0L
aL1L
aL0L
aL0L
aL1L
aL0L
aL0L
aL4L
aL2L
aL1L
aL1L
aL2L
aL0L
aL1L
aL1L
aL1L
aL0L
aL3L
aL0L
aL0L
aL1L
aL4L
aL2L
aL0L
aL2L
aL0L
aL0L
aL1L
aL0L
aL0L
aL0L
aL0L
aL0L
aL2L
aL0L
aL1L
aL0L
aL2L
aL0L
aL1L
aL1L
aL0L
aL0L
aL0L
aL1L
aL0L
aL5L
aL4L
aL3L
aL0L
aL1L
aL0L
aL1L
aL1L
aL0L
aL0L
aL0L
aL0L
aL0L
aL1L
aL4L
aL2L
aL0L
aL2L
aL0L
aL0L
aL1L
aL0L
aL0L
aL0L
aL0L
aL0L
aL0L
aL5L
aL2L
aL0L
aL2L
aL0L
aL0L
aL1L
aL0L
aL0L
aL0L
aL0L
aL0L
aL0L
aL5L
aL2L
aL0L
aL1L
aL0L
aL0L
aL1L
aL0L
aL0L
aL0L
aL0L
aL0L
aL2L
aL3L
aL2L
aL0L
aL1L
aL0L
aL0L
aL1L
aL0L
aL0L
aL1L
aL0L
aL0L
aL0L
aL5L
aL2L
aL0L
aL1L
aL0L
aL0L
aL1L
aL0L
aL0L
aL0L
aL0L
aL0L
aL2L
aL4L
aL2L
aL0L
aL2L
aL0L
aL1L
aL1L
aL0L
aL0L
aL0L
aL0L
aL0L
aL2L
aL4L
aL2L
aL0L
aL2L
aL0L
aL1L
aL1L
aL0L
aL0L
aL0L
aL0L
aL0L
aL1L
aL0L
aL2L
aL0L
aL1L
aL0L
aL1L
aL1L
aL0L
aL0L
aL0L
aL0L
aL0L
aL5L
aL4L
aL3L
aL0L
aL2L
aL0L
aL1L
aL0L
aL0L
aL0L
aL0L
aL0L
aL0L
aL2L
aL2L
aL1L
aL1L
aL2L
aL0L
aL1L
aL1L
aL0L
aL0L
aL3L
aL1L
aL0L
aL1L
aL3L
aL2L
aL0L
aL0L
aL0L
aL0L
aL1L
aL0L
aL0L
aL0L
aL0L
aL0L
aL5L
aL4L
aL3L
aL0L
aL2L
aL0L
aL0L
aL1L
aL0L
aL0L
aL0L
aL0L
aL0L
aL1L
aL4L
aL2L
aL0L
aL2L
aL0L
aL0L
aL1L
aL0L
aL0L
aL0L
aL0L
aL0L
aL0L
aL5L
aL2L
aL0L
aL1L
aL0L
aL0L
aL1L
aL0L
aL0L
aL1L
aL0L
aL0L
aL5L
aL4L
aL3L
aL0L
aL2L
aL0L
aL0L
aL1L
aL0L
aL0L
aL0L
aL0L
aL0L
aL5L
aL0L
aL3L
aL0L
aL1L
aL0L
aL0L
aL0L
aL0L
aL0L
aL0L
aL0L
aL0L
aL2L
aL4L
aL2L
aL0L
aL2L
aL0L
aL0L
aL1L
aL0L
aL0L
aL0L
aL0L
aL0L
aL2L
aL0L
aL2L
aL0L
aL1L
aL0L
aL1L
aL1L
aL0L
aL0L
aL0L
aL0L
aL0L
aL2L
aL4L
aL2L
aL0L
aL2L
aL0L
aL0L
aL1L
aL0L
aL0L
aL1L
aL0L
aL0L
aL2L
aL4L
aL1L
aL1L
aL2L
aL0L
aL0L
aL1L
aL0L
aL0L
aL0L
aL0L
aL0L
aL5L
aL4L
aL3L
aL0L
aL2L
aL0L
aL0L
aL0L
aL0L
aL0L
aL0L
aL0L
aL0L
aL5L
aL0L
aL3L
aL0L
aL1L
aL0L
aL0L
aL0L
aL0L
aL0L
aL0L
aL0L
aL0L
aL2L
aL4L
aL1L
aL1L
aL2L
aL0L
aL1L
aL1L
aL0L
aL0L
aL0L
aL0L
aL0L
aL0L
aL5L
aL2L
aL1L
aL0L
aL0L
aL1L
aL1L
aL0L
aL0L
aL0L
aL0L
aL0L
aL4L
aL4L
aL1L
aL1L
aL1L
aL0L
aL1L
aL1L
aL0L
aL0L
aL0L
aL0L
aL0L
aL0L
aL5L
aL1L
aL0L
aL2L
aL0L
aL0L
aL1L
aL0L
aL0L
aL0L
aL0L
aL0L
aL5L
aL4L
aL3L
aL0L
aL1L
aL0L
aL1L
aL0L
aL0L
aL0L
aL0L
aL0L
aL0L
aL5L
aL4L
aL3L
aL0L
aL1L
aL0L
aL1L
aL1L
aL0L
aL0L
aL0L
aL0L
aL0L
aL2L
aL4L
aL2L
aL0L
aL1L
aL0L
aL1L
aL1L
aL0L
aL0L
aL0L
aL0L
aL0L
aL5L
aL4L
aL3L
aL1L
aL1L
aL0L
aL0L
aL1L
aL0L
aL0L
aL0L
aL0L
aL0L
aL0L
aL5L
aL2L
aL0L
aL1L
aL0L
aL1L
aL1L
aL0L
aL0L
aL1L
aL0L
aL0L
aL5L
aL4L
aL3L
aL0L
aL2L
aL0L
aL0L
aL0L
aL0L
aL0L
aL0L
aL0L
aL0L
aL1L
aL4L
aL2L
aL0L
aL1L
aL0L
aL0L
aL1L
aL0L
aL0L
aL1L
aL0L
aL0L
aL5L
aL4L
aL3L
aL0L
aL0L
aL0L
aL0L
aL1L
aL0L
aL0L
aL0L
aL0L
aL0L
aL0L
aL5L
aL2L
aL0L
aL1L
aL0L
aL0L
aL1L
aL0L
aL0L
aL0L
aL0L
aL0L
aL2L
aL0L
aL2L
aL0L
aL2L
aL0L
aL1L
aL1L
aL0L
aL0L
aL0L
aL0L
aL0L
aL0L
aL5L
aL1L
aL0L
aL1L
aL0L
aL0L
aL1L
aL0L
aL0L
aL0L
aL0L
aL0L
aL5L
aL4L
aL3L
aL0L
aL1L
aL0L
aL0L
aL1L
aL0L
aL0L
aL0L
aL0L
aL0L
aL3L
aL2L
aL1L
aL1L
aL1L
aL0L
aL1L
aL1L
aL0L
aL0L
aL2L
aL0L
aL0L
aL1L
aL4L
aL2L
aL0L
aL2L
aL0L
aL0L
aL1L
aL0L
aL0L
aL0L
aL0L
aL0L
aL5L
aL4L
aL3L
aL0L
aL2L
aL0L
aL0L
aL1L
aL0L
aL0L
aL0L
aL0L
aL0L
aL0L
aL5L
aL2L
aL0L
aL0L
aL0L
aL0L
aL1L
aL0L
aL0L
aL0L
aL0L
aL0L
aL0L
aL5L
aL2L
aL0L
aL2L
aL0L
aL0L
aL1L
aL0L
aL0L
aL0L
aL0L
aL0L
aL0L
aL5L
aL1L
aL0L
aL2L
aL0L
aL0L
aL1L
aL0L
aL0L
aL0L
aL0L
aL0L
aL0L
aL5L
aL2L
aL0L
aL0L
aL0L
aL0L
aL1L
aL0L
aL0L
aL0L
aL0L
aL0L
aL2L
aL0L
aL2L
aL1L
aL2L
aL2L
aL1L
aL1L
aL0L
aL0L
aL2L
aL0L
aL0L
aL2L
aL2L
aL1L
aL1L
aL1L
aL0L
aL1L
aL1L
aL0L
aL0L
aL1L
aL0L
aL0L
aL2L
aL3L
aL1L
aL1L
aL1L
aL0L
aL0L
aL1L
aL0L
aL0L
aL0L
aL0L
aL0L
aL2L
aL3L
aL2L
aL0L
aL2L
aL0L
aL0L
aL1L
aL0L
aL0L
aL0L
aL0L
aL0L
aL5L
aL4L
aL3L
aL0L
aL1L
aL0L
aL0L
aL0L
aL0L
aL0L
aL1L
aL0L
aL0L
aL3L
aL0L
aL1L
aL0L
aL1L
aL0L
aL1L
aL1L
aL0L
aL0L
aL0L
aL0L
aL0L
aL5L
aL3L
aL3L
aL0L
aL2L
aL0L
aL0L
aL1L
aL0L
aL0L
aL0L
aL0L
aL0L
aL1L
aL3L
aL2L
aL0L
aL2L
aL0L
aL0L
aL1L
aL0L
aL0L
aL0L
aL0L
aL0L
aL2L
aL0L
aL1L
aL1L
aL2L
aL0L
aL0L
aL1L
aL0L
aL0L
aL2L
aL0L
aL0L
aL5L
aL3L
aL3L
aL0L
aL0L
aL0L
aL0L
aL1L
aL0L
aL0L
aL1L
aL0L
aL0L
aL1L
aL0L
aL2L
aL0L
aL1L
aL0L
aL0L
aL1L
aL0L
aL0L
aL0L
aL0L
aL0L
aL1L
aL0L
aL2L
aL0L
aL0L
aL0L
aL0L
aL1L
aL0L
aL0L
aL0L
aL0L
aL0L
aL1L
aL4L
aL2L
aL1L
aL1L
aL0L
aL0L
aL1L
aL0L
aL0L
aL0L
aL0L
aL0L
aL2L
aL4L
aL2L
aL0L
aL0L
aL2L
aL1L
aL1L
aL0L
aL0L
aL0L
aL0L
aL0L
aL1L
aL3L
aL2L
aL0L
aL2L
aL0L
aL0L
aL1L
aL0L
aL0L
aL5L
aL0L
aL0L
aL3L
aL1L
aL1L
aL0L
aL2L
aL0L
aL1L
aL1L
aL0L
aL0L
aL3L
aL0L
aL0L
aL5L
aL3L
aL3L
aL0L
aL2L
aL0L
aL0L
aL1L
aL0L
aL0L
aL0L
aL0L
aL0L
aL5L
aL3L
aL3L
aL0L
aL1L
aL0L
aL0L
aL0L
aL0L
aL0L
aL0L
aL0L
aL0L
aL0L
aL5L
aL2L
aL0L
aL2L
aL0L
aL0L
aL1L
aL0L
aL0L
aL0L
aL0L
aL0L
aL3L
aL3L
aL0L
aL1L
aL2L
aL0L
aL0L
aL1L
aL0L
aL0L
aL0L
aL0L
aL0L
aL5L
aL3L
aL3L
aL0L
aL0L
aL0L
aL0L
aL1L
aL0L
aL0L
aL0L
aL0L
aL0L
aL5L
aL4L
aL3L
aL0L
aL1L
aL0L
aL0L
aL1L
aL0L
aL0L
aL0L
aL0L
aL0L
aL0L
aL5L
aL2L
aL0L
aL1L
aL0L
aL1L
aL1L
aL0L
aL0L
aL0L
aL0L
aL0L
aL0L
aL5L
aL2L
aL0L
aL2L
aL0L
aL0L
aL1L
aL0L
aL0L
aL0L
aL0L
aL0L
aL5L
aL3L
aL3L
aL0L
aL1L
aL0L
aL1L
aL1L
aL0L
aL0L
aL0L
aL0L
aL0L
aL2L
aL4L
aL1L
aL0L
aL0L
aL0L
aL1L
aL1L
aL0L
aL0L
aL0L
aL0L
aL0L
aL2L
aL0L
aL1L
aL1L
aL1L
aL0L
aL1L
aL1L
aL0L
aL0L
aL1L
aL0L
aL0L
aL5L
aL4L
aL3L
aL0L
aL1L
aL0L
aL0L
aL1L
aL0L
aL0L
aL0L
aL0L
aL0L
aL5L
aL3L
aL3L
aL0L
aL2L
aL0L
aL0L
aL1L
aL0L
aL0L
aL0L
aL0L
aL0L
aL5L
aL4L
aL3L
aL0L
aL2L
aL0L
aL0L
aL1L
aL0L
aL0L
aL0L
aL0L
aL0L
aL3L
aL1L
aL0L
aL1L
aL2L
aL0L
aL1L
aL1L
aL0L
aL0L
aL0L
aL0L
aL0L
aL4L
aL0L
aL1L
aL1L
aL2L
aL0L
aL1L
aL1L
aL0L
aL0L
aL0L
aL0L
aL0L
aL5L
aL4L
aL3L
aL0L
aL1L
aL0L
aL0L
aL1L
aL0L
aL0L
aL0L
aL0L
aL0L
aL5L
aL4L
aL3L
aL0L
aL0L
aL0L
aL0L
aL1L
aL0L
aL0L
aL0L
aL0L
aL0L
aL1L
aL4L
aL2L
aL0L
aL2L
aL0L
aL1L
aL1L
aL0L
aL0L
aL1L
aL0L
aL0L
aL0L
aL5L
aL2L
aL0L
aL2L
aL0L
aL0L
aL1L
aL0L
aL0L
aL0L
aL0L
aL0L
aL1L
aL3L
aL2L
aL0L
aL2L
aL0L
aL0L
aL1L
aL0L
aL0L
aL0L
aL0L
aL0L
aL1L
aL3L
aL2L
aL0L
aL1L
aL0L
aL0L
aL1L
aL0L
aL0L
aL0L
aL0L
aL0L
aL5L
aL1L
aL3L
aL0L
aL2L
aL0L
aL0L
aL1L
aL0L
aL0L
aL0L
aL0L
aL0L
aL3L
aL0L
aL1L
aL0L
aL2L
aL0L
aL1L
aL1L
aL0L
aL0L
aL3L
aL0L
aL0L
aL2L
aL4L
aL2L
aL1L
aL2L
aL1L
aL0L
aL1L
aL0L
aL0L
aL1L
aL0L
aL0L
aL2L
aL0L
aL0L
aL1L
aL1L
aL2L
aL1L
aL1L
aL0L
aL0L
aL0L
aL0L
aL0L
aL2L
aL3L
aL2L
aL0L
aL2L
aL0L
aL0L
aL1L
aL0L
aL0L
aL0L
aL0L
aL0L
aL0L
aL5L
aL2L
aL0L
aL2L
aL0L
aL0L
aL1L
aL0L
aL0L
aL0L
aL0L
aL0L
aL5L
aL3L
aL3L
aL0L
aL1L
aL0L
aL0L
aL1L
aL0L
aL0L
aL0L
aL0L
aL0L
aL4L
aL2L
aL1L
aL0L
aL1L
aL0L
aL1L
aL1L
aL1L
aL0L
aL0L
aL0L
aL0L
aL1L
aL0L
aL2L
aL0L
aL1L
aL0L
aL1L
aL1L
aL0L
aL0L
aL0L
aL0L
aL0L
aL5L
aL3L
aL3L
aL0L
aL2L
aL0L
aL0L
aL1L
aL0L
aL0L
aL0L
aL0L
aL0L
aL0L
aL5L
aL2L
aL0L
aL1L
aL0L
aL1L
aL1L
aL0L
aL0L
aL0L
aL0L
aL0L
aL5L
aL0L
aL3L
aL0L
aL2L
aL0L
aL1L
aL0L
aL0L
aL0L
aL0L
aL0L
aL0L
aL5L
aL4L
aL3L
aL0L
aL2L
aL0L
aL0L
aL0L
aL0L
aL0L
aL0L
aL0L
aL0L
aL0L
aL5L
aL2L
aL0L
aL2L
aL0L
aL0L
aL1L
aL0L
aL0L
aL0L
aL0L
aL0L
aL0L
aL5L
aL2L
aL0L
aL2L
aL0L
aL0L
aL1L
aL0L
aL0L
aL0L
aL0L
aL0L
aL1L
aL3L
aL2L
aL0L
aL2L
aL0L
aL0L
aL1L
aL0L
aL0L
aL0L
aL0L
aL0L
aL1L
aL4L
aL1L
aL1L
aL1L
aL0L
aL1L
aL1L
aL0L
aL0L
aL0L
aL0L
aL0L
aL1L
aL3L
aL2L
aL0L
aL2L
aL0L
aL0L
aL1L
aL0L
aL0L
aL0L
aL0L
aL0L
aL1L
aL4L
aL2L
aL0L
aL1L
aL0L
aL0L
aL1L
aL0L
aL0L
aL0L
aL0L
aL0L
aL2L
aL0L
aL2L
aL0L
aL2L
aL0L
aL1L
aL1L
aL0L
aL0L
aL0L
aL0L
aL0L
aL1L
aL3L
aL2L
aL0L
aL2L
aL0L
aL0L
aL1L
aL0L
aL0L
aL0L
aL0L
aL0L
aL0L
aL5L
aL2L
aL0L
aL2L
aL0L
aL0L
aL1L
aL0L
aL0L
aL0L
aL0L
aL0L
aL5L
aL4L
aL3L
aL0L
aL1L
aL0L
aL0L
aL1L
aL0L
aL0L
aL1L
aL0L
aL0L
aL5L
aL0L
aL3L
aL0L
aL0L
aL0L
aL1L
aL1L
aL0L
aL0L
aL0L
aL0L
aL0L
aL1L
aL3L
aL2L
aL0L
aL2L
aL0L
aL0L
aL1L
aL0L
aL0L
aL0L
aL0L
aL0L
aL0L
aL5L
aL2L
aL1L
aL1L
aL0L
aL1L
aL1L
aL0L
aL0L
aL0L
aL0L
aL0L
aL1L
aL0L
aL1L
aL0L
aL1L
aL0L
aL1L
aL1L
aL0L
aL0L
aL0L
aL0L
aL0L
aL2L
aL0L
aL2L
aL0L
aL2L
aL0L
aL0L
aL1L
aL0L
aL0L
aL0L
aL0L
aL0L
aL0L
aL5L
aL2L
aL0L
aL2L
aL0L
aL0L
aL1L
aL0L
aL0L
aL0L
aL0L
aL0L
aL0L
aL5L
aL2L
aL0L
aL0L
aL0L
aL0L
aL1L
aL0L
aL0L
aL0L
aL0L
aL0L
aL2L
aL4L
aL1L
aL0L
aL1L
aL0L
aL1L
aL1L
aL0L
aL0L
aL0L
aL3L
aL0L
aL1L
aL0L
aL1L
aL1L
aL2L
aL0L
aL1L
aL1L
aL0L
aL0L
aL0L
aL0L
aL0L
aL0L
aL5L
aL2L
aL0L
aL2L
aL0L
aL0L
aL1L
aL0L
aL0L
aL0L
aL0L
aL0L
aL2L
aL3L
aL2L
aL0L
aL2L
aL0L
aL0L
aL1L
aL0L
aL0L
aL0L
aL0L
aL0L
aL1L
aL3L
aL2L
aL0L
aL1L
aL0L
aL0L
aL1L
aL0L
aL0L
aL0L
aL0L
aL0L
aL5L
aL4L
aL3L
aL0L
aL2L
aL0L
aL0L
aL0L
aL0L
aL0L
aL0L
aL0L
aL0L
aL1L
aL3L
aL2L
aL0L
aL1L
aL0L
aL0L
aL1L
aL0L
aL0L
aL0L
aL0L
aL0L
aL3L
aL2L
aL0L
aL1L
aL1L
aL1L
aL1L
aL1L
aL1L
aL0L
aL4L
aL0L
aL0L
aL4L
aL0L
aL1L
aL0L
aL1L
aL0L
aL1L
aL1L
aL0L
aL0L
aL1L
aL0L
aL0L
aL2L
aL1L
aL1L
aL1L
aL2L
aL0L
aL1L
aL1L
aL0L
aL0L
aL0L
aL0L
aL0L
aL5L
aL3L
aL3L
aL0L
aL1L
aL0L
aL0L
aL1L
aL0L
aL0L
aL0L
aL0L
aL0L
aL0L
aL5L
aL2L
aL0L
aL2L
aL0L
aL0L
aL1L
aL0L
aL0L
aL0L
aL0L
aL0L
aL3L
aL0L
aL1L
aL1L
aL2L
aL2L
aL1L
aL1L
aL0L
aL0L
aL6L
aL0L
aL0L
aL5L
aL3L
aL3L
aL0L
aL1L
aL0L
aL0L
aL1L
aL0L
aL0L
aL0L
aL0L
aL0L
aL2L
aL3L
aL1L
aL0L
aL1L
aL0L
aL1L
aL1L
aL0L
aL0L
aL0L
aL0L
aL0L
aL3L
aL0L
aL0L
aL1L
aL0L
aL2L
aL1L
aL1L
aL0L
aL0L
aL5L
aL0L
aL0L
aL0L
aL5L
aL1L
aL0L
aL1L
aL0L
aL0L
aL1L
aL0L
aL0L
aL0L
aL0L
aL0L
aL1L
aL4L
aL2L
aL1L
aL1L
aL2L
aL1L
aL1L
aL0L
aL0L
aL0L
aL0L
aL0L
aL5L
aL4L
aL3L
aL0L
aL1L
aL0L
aL0L
aL0L
aL0L
aL0L
aL0L
aL0L
aL0L
aL5L
aL4L
aL3L
aL0L
aL1L
aL0L
aL0L
aL0L
aL0L
aL0L
aL0L
aL0L
aL0L
aL2L
aL3L
aL0L
aL0L
aL2L
aL0L
aL1L
aL1L
aL0L
aL0L
aL1L
aL0L
aL0L
aL2L
aL0L
aL1L
aL0L
aL1L
aL0L
aL1L
aL1L
aL0L
aL0L
aL0L
aL0L
aL0L
aL5L
aL4L
aL3L
aL0L
aL1L
aL0L
aL0L
aL0L
aL0L
aL0L
aL0L
aL0L
aL0L
aL1L
aL3L
aL2L
aL0L
aL2L
aL0L
aL0L
aL1L
aL0L
aL0L
aL0L
aL0L
aL0L
aL5L
aL0L
aL3L
aL0L
aL0L
aL0L
aL1L
aL1L
aL0L
aL0L
aL0L
aL0L
aL0L
aL2L
aL4L
aL1L
aL1L
aL2L
aL0L
aL0L
aL1L
aL0L
aL0L
aL0L
aL0L
aL0L
aL2L
aL0L
aL1L
aL0L
aL2L
aL0L
aL0L
aL1L
aL0L
aL0L
aL0L
aL0L
aL0L
aL5L
aL3L
aL3L
aL0L
aL2L
aL0L
aL0L
aL1L
aL0L
aL0L
aL0L
aL0L
aL0L
aL5L
aL4L
aL3L
aL0L
aL1L
aL0L
aL0L
aL1L
aL0L
aL0L
aL0L
aL0L
aL0L
aL4L
aL2L
aL1L
aL0L
aL1L
aL0L
aL1L
aL1L
aL0L
aL0L
aL1L
aL0L
aL0L
aL2L
aL2L
aL1L
aL1L
aL2L
aL0L
aL1L
aL1L
aL0L
aL0L
aL2L
aL0L
aL0L
aL3L
aL4L
aL1L
aL0L
aL1L
aL0L
aL1L
aL1L
aL0L
aL0L
aL0L
aL0L
aL0L
aL0L
aL5L
aL2L
aL0L
aL2L
aL0L
aL0L
aL1L
aL0L
aL0L
aL0L
aL0L
aL0L
aL0L
aL5L
aL2L
aL0L
aL1L
aL0L
aL0L
aL1L
aL0L
aL0L
aL0L
aL0L
aL0L
aL5L
aL4L
aL3L
aL0L
aL2L
aL0L
aL1L
aL0L
aL0L
aL0L
aL0L
aL0L
aL0L
aL5L
aL4L
aL3L
aL0L
aL0L
aL0L
aL0L
aL0L
aL0L
aL0L
aL0L
aL0L
aL0L
aL0L
aL5L
aL2L
aL0L
aL1L
aL0L
aL0L
aL1L
aL0L
aL0L
aL0L
aL0L
aL0L
aL0L
aL5L
aL1L
aL0L
aL2L
aL0L
aL0L
aL1L
aL0L
aL0L
aL0L
aL0L
aL0L
aL0L
aL5L
aL2L
aL0L
aL1L
aL0L
aL0L
aL1L
aL0L
aL0L
aL0L
aL0L
aL0L
aL5L
aL4L
aL3L
aL0L
aL1L
aL0L
aL0L
aL1L
aL0L
aL0L
aL0L
aL0L
aL0L
aL5L
aL3L
aL3L
aL0L
aL1L
aL0L
aL0L
aL1L
aL0L
aL0L
aL0L
aL0L
aL0L
aL5L
aL4L
aL3L
aL0L
aL0L
aL0L
aL0L
aL1L
aL0L
aL0L
aL0L
aL0L
aL0L
aL2L
aL4L
aL2L
aL1L
aL1L
aL0L
aL0L
aL1L
aL0L
aL0L
aL0L
aL0L
aL0L
aL3L
aL4L
aL2L
aL0L
aL2L
aL0L
aL0L
aL1L
aL0L
aL0L
aL0L
aL0L
aL0L
aL2L
aL4L
aL2L
aL0L
aL1L
aL0L
aL1L
aL1L
aL0L
aL0L
aL1L
aL0L
aL0L
aL1L
aL4L
aL2L
aL0L
aL1L
aL0L
aL0L
aL1L
aL0L
aL0L
aL0L
aL0L
aL0L
aL5L
aL4L
aL3L
aL0L
aL1L
aL0L
aL1L
aL0L
aL0L
aL0L
aL0L
aL0L
aL0L
aL5L
aL4L
aL3L
aL0L
aL1L
aL0L
aL1L
aL0L
aL0L
aL0L
aL0L
aL0L
aL0L
aL3L
aL0L
aL1L
aL0L
aL1L
aL0L
aL1L
aL1L
aL0L
aL0L
aL0L
aL0L
aL0L
aL0L
aL5L
aL2L
aL0L
aL2L
aL0L
aL0L
aL1L
aL0L
aL0L
aL0L
aL0L
aL0L
aL0L
aL5L
aL2L
aL0L
aL0L
aL0L
aL0L
aL1L
aL0L
aL0L
aL0L
aL0L
aL0L
aL1L
aL4L
aL2L
aL0L
aL2L
aL0L
aL0L
aL1L
aL0L
aL0L
aL0L
aL0L
aL0L
aL5L
aL4L
aL3L
aL0L
aL1L
aL0L
aL1L
aL0L
aL0L
aL0L
aL0L
aL0L
aL0L
aL2L
aL0L
aL1L
aL0L
aL2L
aL0L
aL1L
aL1L
aL0L
aL0L
aL0L
aL0L
aL0L
aL3L
aL2L
aL0L
aL1L
aL1L
aL1L
aL1L
aL1L
aL1L
aL0L
aL0L
aL0L
aL0L
aL2L
aL0L
aL1L
aL0L
aL1L
aL0L
aL1L
aL1L
aL0L
aL0L
aL1L
aL0L
aL0L
aL5L
aL4L
aL3L
aL0L
aL0L
aL0L
aL0L
aL0L
aL0L
aL0L
aL0L
aL0L
aL0L
aL5L
aL4L
aL3L
aL0L
aL1L
aL0L
aL1L
aL1L
aL0L
aL0L
aL0L
aL0L
aL0L
aL1L
aL4L
aL1L
aL0L
aL2L
aL0L
aL0L
aL1L
aL0L
aL0L
aL1L
aL0L
aL0L
aL5L
aL4L
aL3L
aL1L
aL2L
aL0L
aL1L
aL1L
aL0L
aL0L
aL0L
aL0L
aL0L
aL2L
aL2L
aL1L
aL0L
aL2L
aL0L
aL1L
aL1L
aL0L
aL0L
aL0L
aL0L
aL0L
aL5L
aL4L
aL3L
aL1L
aL1L
aL0L
aL0L
aL1L
aL0L
aL0L
aL0L
aL0L
aL0L
aL4L
aL2L
aL0L
aL1L
aL2L
aL0L
aL1L
aL1L
aL1L
aL0L
aL0L
aL0L
aL0L
aL5L
aL4L
aL3L
aL0L
aL1L
aL0L
aL1L
aL0L
aL0L
aL0L
aL0L
aL0L
aL0L
aL1L
aL0L
aL2L
aL0L
aL1L
aL0L
aL1L
aL1L
aL0L
aL0L
aL0L
aL0L
aL0L
aL0L
aL5L
aL2L
aL0L
aL0L
aL0L
aL0L
aL1L
aL0L
aL0L
aL0L
aL0L
aL0L
aL5L
aL3L
aL3L
aL0L
aL2L
aL0L
aL0L
aL0L
aL0L
aL0L
aL0L
aL0L
aL0L
aL5L
aL3L
aL3L
aL0L
aL2L
aL0L
aL0L
aL1L
aL0L
aL0L
aL0L
aL0L
aL0L
aL2L
aL3L
aL2L
aL0L
aL2L
aL0L
aL0L
aL1L
aL0L
aL0L
aL0L
aL0L
aL0L
aL5L
aL4L
aL3L
aL0L
aL1L
aL0L
aL0L
aL1L
aL0L
aL0L
aL0L
aL0L
aL0L
aL0L
aL5L
aL2L
aL1L
aL1L
aL0L
aL1L
aL1L
aL0L
aL0L
aL2L
aL0L
aL0L
aL1L
aL4L
aL2L
aL0L
aL1L
aL0L
aL0L
aL1L
aL0L
aL0L
aL3L
aL0L
aL0L
aL2L
aL4L
aL1L
aL0L
aL2L
aL0L
aL1L
aL1L
aL0L
aL0L
aL1L
aL0L
aL0L
aL5L
aL4L
aL3L
aL0L
aL0L
aL0L
aL0L
aL1L
aL0L
aL0L
aL0L
aL0L
aL0L
aL5L
aL4L
aL3L
aL0L
aL1L
aL0L
aL0L
aL1L
aL0L
aL0L
aL0L
aL0L
aL0L
aL2L
aL2L
aL1L
aL0L
aL2L
aL0L
aL1L
aL1L
aL0L
aL0L
aL1L
aL0L
aL0L
aL0L
aL5L
aL2L
aL0L
aL2L
aL0L
aL0L
aL1L
aL0L
aL0L
aL0L
aL0L
aL0L
aL1L
aL4L
aL2L
aL0L
aL1L
aL0L
aL1L
aL1L
aL0L
aL0L
aL1L
aL0L
aL0L
aL2L
aL0L
aL1L
aL1L
aL1L
aL0L
aL1L
aL1L
aL0L
aL0L
aL1L
aL0L
aL0L
aL1L
aL3L
aL2L
aL1L
aL1L
aL0L
aL0L
aL1L
aL0L
aL0L
aL0L
aL0L
aL0L
aL1L
aL4L
aL2L
aL1L
aL1L
aL0L
aL1L
aL1L
aL0L
aL0L
aL0L
aL0L
aL0L
aL3L
aL2L
aL1L
aL0L
aL2L
aL0L
aL1L
aL1L
aL1L
aL0L
aL0L
aL0L
aL0L
aL0L
aL5L
aL2L
aL0L
aL0L
aL0L
aL1L
aL1L
aL0L
aL0L
aL0L
aL0L
aL0L
aL5L
aL4L
aL3L
aL0L
aL1L
aL0L
aL0L
aL1L
aL0L
aL0L
aL0L
aL0L
aL0L
aL1L
aL0L
aL2L
aL0L
aL2L
aL0L
aL0L
aL1L
aL0L
aL0L
aL0L
aL0L
aL0L
aL2L
aL0L
aL1L
aL1L
aL2L
aL0L
aL1L
aL1L
aL0L
aL0L
aL0L
aL0L
aL0L
aL2L
aL4L
aL1L
aL0L
aL2L
aL0L
aL1L
aL1L
aL0L
aL0L
aL0L
aL0L
aL0L
aL1L
aL4L
aL2L
aL0L
aL2L
aL0L
aL1L
aL1L
aL0L
aL0L
aL0L
aL0L
aL0L
aL1L
aL4L
aL2L
aL0L
aL1L
aL0L
aL0L
aL1L
aL0L
aL0L
aL0L
aL0L
aL0L
aL1L
aL3L
aL1L
aL0L
aL2L
aL0L
aL0L
aL1L
aL0L
aL0L
aL2L
aL0L
aL0L
aL5L
aL4L
aL3L
aL0L
aL2L
aL0L
aL1L
aL1L
aL0L
aL0L
aL0L
aL0L
aL0L
aL1L
aL4L
aL2L
aL0L
aL1L
aL0L
aL1L
aL1L
aL0L
aL0L
aL0L
aL0L
aL0L
aL5L
aL4L
aL3L
aL0L
aL1L
aL0L
aL0L
aL1L
aL0L
aL0L
aL0L
aL0L
aL0L
aL5L
aL4L
aL3L
aL0L
aL2L
aL0L
aL1L
aL0L
aL0L
aL0L
aL0L
aL0L
aL0L
aL1L
aL4L
aL2L
aL0L
aL2L
aL0L
aL0L
aL1L
aL0L
aL0L
aL0L
aL0L
aL0L
aL3L
aL1L
aL2L
aL1L
aL1L
aL0L
aL1L
aL1L
aL0L
aL0L
aL1L
aL0L
aL0L
aL1L
aL3L
aL2L
aL0L
aL0L
aL0L
aL0L
aL1L
aL0L
aL0L
aL0L
aL0L
aL0L
aL5L
aL4L
aL3L
aL0L
aL2L
aL0L
aL1L
aL1L
aL0L
aL0L
aL0L
aL0L
aL0L
aL0L
aL5L
aL2L
aL0L
aL1L
aL0L
aL0L
aL1L
aL0L
aL0L
aL0L
aL0L
aL0L
aL5L
aL3L
aL3L
aL0L
aL1L
aL0L
aL0L
aL1L
aL0L
aL0L
aL0L
aL0L
aL0L
aL0L
aL5L
aL2L
aL0L
aL1L
aL0L
aL0L
aL1L
aL0L
aL0L
aL0L
aL0L
aL0L
aL5L
aL4L
aL3L
aL0L
aL1L
aL0L
aL0L
aL1L
aL0L
aL0L
aL0L
aL0L
aL0L
aL5L
aL0L
aL3L
aL0L
aL1L
aL0L
aL1L
aL0L
aL0L
aL0L
aL0L
aL0L
aL0L
aL0L
aL5L
aL1L
aL0L
aL1L
aL0L
aL0L
aL1L
aL0L
aL0L
aL0L
aL0L
aL0L
aL5L
aL3L
aL3L
aL0L
aL1L
aL0L
aL0L
aL1L
aL0L
aL0L
aL0L
aL0L
aL0L
aL2L
aL4L
aL2L
aL0L
aL1L
aL0L
aL0L
aL1L
aL0L
aL0L
aL0L
aL0L
aL0L
aL1L
aL4L
aL2L
aL0L
aL2L
aL0L
aL0L
aL1L
aL0L
aL0L
aL0L
aL0L
aL0L
aL5L
aL4L
aL3L
aL0L
aL1L
aL0L
aL0L
aL0L
aL0L
aL0L
aL0L
aL0L
aL0L
aL1L
aL4L
aL2L
aL0L
aL2L
aL0L
aL0L
aL1L
aL0L
aL0L
aL0L
aL0L
aL0L
aL2L
aL0L
aL1L
aL0L
aL2L
aL0L
aL1L
aL1L
aL0L
aL0L
aL0L
aL0L
aL0L
aL5L
aL2L
aL3L
aL0L
aL2L
aL0L
aL0L
aL0L
aL0L
aL0L
aL0L
aL0L
aL0L
aL0L
aL5L
aL1L
aL0L
aL1L
aL0L
aL1L
aL1L
aL0L
aL0L
aL0L
aL1L
aL0L
aL5L
aL4L
aL3L
aL0L
aL1L
aL0L
aL0L
aL0L
aL0L
aL0L
aL0L
aL0L
aL0L
aL4L
aL0L
aL1L
aL1L
aL1L
aL0L
aL1L
aL1L
aL0L
aL0L
aL1L
aL0L
aL0L
aL1L
aL4L
aL2L
aL0L
aL1L
aL0L
aL0L
aL1L
aL0L
aL0L
aL0L
aL0L
aL0L
aL2L
aL0L
aL2L
aL0L
aL1L
aL0L
aL1L
aL1L
aL0L
aL0L
aL0L
aL0L
aL0L
aL5L
aL3L
aL3L
aL0L
aL0L
aL0L
aL0L
aL1L
aL0L
aL0L
aL0L
aL0L
aL0L
aL2L
aL3L
aL2L
aL0L
aL2L
aL0L
aL0L
aL1L
aL0L
aL0L
aL0L
aL0L
aL0L
aL2L
aL0L
aL1L
aL0L
aL2L
aL0L
aL1L
aL1L
aL0L
aL0L
aL0L
aL0L
aL0L
aL1L
aL3L
aL2L
aL0L
aL1L
aL0L
aL0L
aL1L
aL0L
aL0L
aL0L
aL0L
aL0L
aL2L
aL4L
aL1L
aL0L
aL2L
aL0L
aL1L
aL1L
aL0L
aL0L
aL0L
aL0L
aL0L
aL5L
aL4L
aL3L
aL0L
aL1L
aL0L
aL0L
aL0L
aL0L
aL0L
aL0L
aL0L
aL0L
aL1L
aL4L
aL2L
aL0L
aL1L
aL0L
aL0L
aL1L
aL0L
aL0L
aL0L
aL0L
aL0L
aL1L
aL4L
aL2L
aL1L
aL1L
aL1L
aL0L
aL1L
aL0L
aL0L
aL0L
aL0L
aL0L
aL5L
aL0L
aL3L
aL0L
aL2L
aL0L
aL1L
aL0L
aL0L
aL0L
aL0L
aL0L
aL0L
aL4L
aL4L
aL1L
aL1L
aL1L
aL0L
aL1L
aL1L
aL0L
aL0L
aL2L
aL0L
aL0L
aL1L
aL4L
aL2L
aL0L
aL1L
aL0L
aL0L
aL1L
aL0L
aL0L
aL0L
aL0L
aL0L
aL2L
aL3L
aL2L
aL0L
aL0L
aL0L
aL1L
aL1L
aL0L
aL0L
aL0L
aL0L
aL0L
aL2L
aL3L
aL2L
aL0L
aL2L
aL0L
aL0L
aL1L
aL0L
aL0L
aL0L
aL0L
aL0L
aL2L
aL0L
aL1L
aL0L
aL2L
aL0L
aL1L
aL1L
aL0L
aL0L
aL0L
aL0L
aL0L
aL3L
aL0L
aL1L
aL1L
aL1L
aL0L
aL0L
aL1L
aL0L
aL0L
aL7L
aL0L
aL0L
aL1L
aL4L
aL2L
aL0L
aL1L
aL0L
aL0L
aL1L
aL0L
aL0L
aL0L
aL0L
aL0L
aL4L
aL2L
aL1L
aL1L
aL1L
aL2L
aL1L
aL1L
aL0L
aL0L
aL0L
aL0L
aL0L
aL1L
aL3L
aL2L
aL0L
aL1L
aL0L
aL1L
aL1L
aL0L
aL0L
aL0L
aL0L
aL0L
aL3L
aL4L
aL2L
aL0L
aL1L
aL0L
aL1L
aL1L
aL0L
aL0L
aL0L
aL0L
aL0L
aL0L
aL5L
aL2L
aL0L
aL1L
aL0L
aL0L
aL1L
aL0L
aL0L
aL0L
aL0L
aL0L
aL1L
aL0L
aL2L
aL0L
aL2L
aL0L
aL1L
aL1L
aL0L
aL0L
aL0L
aL0L
aL0L
aL3L
aL0L
aL2L
aL0L
aL1L
aL0L
aL1L
aL1L
aL0L
aL0L
aL1L
aL0L
aL0L
aL5L
aL4L
aL3L
aL1L
aL2L
aL0L
aL0L
aL1L
aL0L
aL0L
aL0L
aL0L
aL0L
aL1L
aL4L
aL2L
aL0L
aL2L
aL0L
aL1L
aL1L
aL0L
aL0L
aL0L
aL0L
aL0L
aL5L
aL1L
aL3L
aL0L
aL2L
aL0L
aL0L
aL1L
aL0L
aL0L
aL0L
aL0L
aL0L
aL2L
aL3L
aL2L
aL0L
aL2L
aL0L
aL0L
aL1L
aL0L
aL0L
aL0L
aL0L
aL0L
aL5L
aL0L
aL3L
aL0L
aL1L
aL0L
aL1L
aL1L
aL0L
aL0L
aL0L
aL0L
aL0L
aL2L
aL3L
aL2L
aL0L
aL2L
aL0L
aL0L
aL1L
aL0L
aL0L
aL0L
aL0L
aL0L
aL5L
aL4L
aL3L
aL0L
aL1L
aL0L
aL0L
aL1L
aL0L
aL0L
aL0L
aL0L
aL0L
aL5L
aL4L
aL3L
aL0L
aL0L
aL0L
aL0L
aL1L
aL0L
aL0L
aL0L
aL0L
aL0L
aL3L
aL0L
aL2L
aL0L
aL2L
aL0L
aL0L
aL1L
aL0L
aL0L
aL0L
aL0L
aL0L
aL5L
aL1L
aL3L
aL0L
aL1L
aL0L
aL0L
aL1L
aL0L
aL0L
aL0L
aL0L
aL0L
aL5L
aL3L
aL3L
aL0L
aL1L
aL0L
aL1L
aL0L
aL0L
aL0L
aL0L
aL0L
aL0L
aL2L
aL0L
aL2L
aL0L
aL2L
aL0L
aL0L
aL1L
aL0L
aL0L
aL0L
aL0L
aL0L
aL5L
aL3L
aL3L
aL0L
aL2L
aL0L
aL1L
aL1L
aL0L
aL0L
aL0L
aL0L
aL0L
aL3L
aL4L
aL1L
aL1L
aL1L
aL0L
aL1L
aL1L
aL0L
aL0L
aL0L
aL0L
aL0L
aL5L
aL4L
aL3L
aL0L
aL1L
aL0L
aL0L
aL0L
aL0L
aL0L
aL0L
aL0L
aL0L
aL5L
aL3L
aL3L
aL1L
aL1L
aL0L
aL1L
aL1L
aL0L
aL0L
aL0L
aL0L
aL0L
aL2L
aL0L
aL1L
aL0L
aL1L
aL0L
aL1L
aL1L
aL0L
aL0L
aL0L
aL0L
aL0L
aL2L
aL0L
aL1L
aL0L
aL1L
aL0L
aL0L
aL1L
aL0L
aL0L
aL0L
aL0L
aL0L
aL5L
aL4L
aL3L
aL0L
aL1L
aL0L
aL0L
aL0L
aL0L
aL0L
aL0L
aL0L
aL0L
aL5L
aL4L
aL3L
aL0L
aL1L
aL0L
aL0L
aL1L
aL0L
aL0L
aL0L
aL0L
aL0L
aL2L
aL3L
aL2L
aL0L
aL1L
aL0L
aL0L
aL1L
aL0L
aL0L
aL0L
aL0L
aL0L
aL1L
aL3L
aL2L
aL0L
aL1L
aL0L
aL0L
aL1L
aL0L
aL0L
aL3L
aL0L
aL0L
aL1L
aL4L
aL2L
aL0L
aL1L
aL0L
aL1L
aL1L
aL0L
aL0L
aL0L
aL0L
aL0L
aL1L
aL3L
aL2L
aL0L
aL1L
aL0L
aL0L
aL1L
aL0L
aL0L
aL0L
aL0L
aL0L
aL1L
aL4L
aL2L
aL0L
aL1L
aL0L
aL1L
aL1L
aL0L
aL0L
aL0L
aL0L
aL0L
aL3L
aL4L
aL1L
aL0L
aL2L
aL0L
aL0L
aL1L
aL0L
aL0L
aL0L
aL0L
aL0L
aL5L
aL4L
aL3L
aL0L
aL1L
aL0L
aL0L
aL1L
aL0L
aL0L
aL0L
aL0L
aL0L
aL5L
aL3L
aL3L
aL0L
aL1L
aL0L
aL0L
aL0L
aL0L
aL0L
aL0L
aL0L
aL0L
aL2L
aL3L
aL2L
aL0L
aL1L
aL0L
aL0L
aL1L
aL0L
aL0L
aL0L
aL0L
aL0L
aL3L
aL4L
aL1L
aL1L
aL2L
aL0L
aL1L
aL1L
aL0L
aL0L
aL0L
aL0L
aL0L
aL1L
aL4L
aL2L
aL0L
aL2L
aL0L
aL0L
aL1L
aL0L
aL0L
aL0L
aL1L
aL0L
aL2L
aL3L
aL2L
aL0L
aL2L
aL0L
aL0L
aL1L
aL0L
aL0L
aL0L
aL0L
aL0L
aL5L
aL4L
aL3L
aL0L
aL1L
aL0L
aL0L
aL0L
aL0L
aL0L
aL0L
aL0L
aL0L
aL3L
aL0L
aL1L
aL0L
aL1L
aL0L
aL1L
aL1L
aL0L
aL0L
aL0L
aL0L
aL0L
aL0L
aL5L
aL1L
aL0L
aL2L
aL0L
aL0L
aL1L
aL0L
aL0L
aL0L
aL0L
aL0L
aL1L
aL4L
aL2L
aL0L
aL1L
aL0L
aL1L
aL1L
aL0L
aL0L
aL0L
aL0L
aL0L
aL2L
aL3L
aL2L
aL0L
aL2L
aL0L
aL0L
aL1L
aL0L
aL0L
aL1L
aL1L
aL0L
aL3L
aL0L
aL1L
aL1L
aL2L
aL0L
aL1L
aL1L
aL0L
aL0L
aL1L
aL0L
aL0L
aL2L
aL0L
aL1L
aL1L
aL1L
aL0L
aL1L
aL1L
aL0L
aL0L
aL1L
aL0L
aL0L
aL1L
aL0L
aL1L
aL0L
aL1L
aL0L
aL1L
aL1L
aL0L
aL0L
aL0L
aL0L
aL0L
aL2L
aL0L
aL1L
aL0L
aL2L
aL0L
aL0L
aL1L
aL0L
aL0L
aL0L
aL0L
aL0L
aL5L
aL4L
aL3L
aL0L
aL0L
aL0L
aL1L
aL1L
aL0L
aL0L
aL0L
aL0L
aL0L
aL5L
aL4L
aL3L
aL0L
aL1L
aL0L
aL0L
aL1L
aL0L
aL0L
aL0L
aL0L
aL0L
aL5L
aL4L
aL3L
aL0L
aL1L
aL0L
aL0L
aL0L
aL0L
aL0L
aL0L
aL0L
aL0L
aL0L
aL5L
aL2L
aL0L
aL0L
aL0L
aL0L
aL1L
aL0L
aL0L
aL0L
aL0L
aL0L
aL1L
aL3L
aL1L
aL0L
aL1L
aL0L
aL0L
aL1L
aL0L
aL0L
aL2L
aL0L
aL0L
aL2L
aL3L
aL2L
aL0L
aL2L
aL0L
aL0L
aL1L
aL0L
aL0L
aL0L
aL0L
aL0L
aL4L
aL3L
aL1L
aL0L
aL1L
aL0L
aL1L
aL1L
aL0L
aL0L
aL1L
aL0L
aL0L
aL2L
aL4L
aL2L
aL0L
aL2L
aL0L
aL0L
aL1L
aL0L
aL0L
aL0L
aL0L
aL0L
aL5L
aL4L
aL3L
aL0L
aL2L
aL0L
aL1L
aL0L
aL0L
aL0L
aL0L
aL0L
aL0L
aL5L
aL4L
aL3L
aL0L
aL1L
aL0L
aL1L
aL1L
aL0L
aL0L
aL0L
aL0L
aL0L
aL0L
aL5L
aL2L
aL0L
aL2L
aL0L
aL0L
aL1L
aL0L
aL0L
aL0L
aL0L
aL0L
aL2L
aL0L
aL1L
aL0L
aL1L
aL0L
aL0L
aL1L
aL0L
aL0L
aL0L
aL0L
aL0L
aL0L
aL5L
aL2L
aL0L
aL2L
aL0L
aL0L
aL1L
aL0L
aL0L
aL0L
aL0L
aL0L
aL2L
aL0L
aL1L
aL0L
aL1L
aL0L
aL1L
aL1L
aL0L
aL0L
aL0L
aL0L
aL0L
aL1L
aL4L
aL2L
aL1L
aL1L
aL0L
aL0L
aL1L
aL0L
aL0L
aL0L
aL0L
aL0L
aL3L
aL2L
aL0L
aL1L
aL2L
aL2L
aL1L
aL1L
aL1L
aL0L
aL0L
aL5L
aL1L
aL1L
aL0L
aL2L
aL0L
aL2L
aL0L
aL1L
aL1L
aL0L
aL0L
aL0L
aL0L
aL0L
aL5L
aL4L
aL3L
aL1L
aL1L
aL0L
aL1L
aL1L
aL0L
aL0L
aL0L
aL0L
aL0L
aL5L
aL4L
aL3L
aL0L
aL2L
aL0L
aL0L
aL0L
aL0L
aL0L
aL0L
aL0L
aL0L
aL5L
aL0L
aL3L
aL0L
aL1L
aL0L
aL1L
aL0L
aL0L
aL0L
aL0L
aL0L
aL0L
aL1L
aL3L
aL2L
aL0L
aL2L
aL0L
aL0L
aL1L
aL0L
aL0L
aL0L
aL0L
aL0L
aL5L
aL4L
aL3L
aL0L
aL2L
aL0L
aL1L
aL1L
aL0L
aL0L
aL0L
aL0L
aL0L
aL5L
aL3L
aL3L
aL0L
aL1L
aL0L
aL0L
aL1L
aL0L
aL0L
aL0L
aL0L
aL0L
aL2L
aL0L
aL2L
aL0L
aL2L
aL0L
aL0L
aL1L
aL0L
aL0L
aL0L
aL0L
aL0L
aL2L
aL4L
aL2L
aL0L
aL2L
aL0L
aL0L
aL1L
aL0L
aL0L
aL0L
aL0L
aL0L
aL0L
aL5L
aL1L
aL0L
aL0L
aL0L
aL1L
aL1L
aL0L
aL0L
aL0L
aL0L
aL0L
aL2L
aL0L
aL1L
aL0L
aL2L
aL0L
aL1L
aL1L
aL0L
aL0L
aL1L
aL0L
aL0L
aL5L
aL4L
aL3L
aL0L
aL1L
aL0L
aL0L
aL1L
aL0L
aL0L
aL0L
aL0L
aL0L
aL0L
aL4L
aL2L
aL0L
aL2L
aL0L
aL0L
aL1L
aL0L
aL0L
aL0L
aL0L
aL0L
aL2L
aL0L
aL1L
aL0L
aL2L
aL0L
aL0L
aL1L
aL0L
aL0L
aL1L
aL0L
aL0L
aL0L
aL5L
aL1L
aL0L
aL2L
aL0L
aL0L
aL1L
aL0L
aL0L
aL0L
aL0L
aL0L
aL2L
aL4L
aL1L
aL1L
aL1L
aL0L
aL1L
aL1L
aL0L
aL0L
aL0L
aL0L
aL0L
aL5L
aL4L
aL3L
aL0L
aL2L
aL0L
aL0L
aL0L
aL0L
aL0L
aL0L
aL0L
aL0L
aL0L
aL5L
aL2L
aL0L
aL2L
aL0L
aL0L
aL1L
aL0L
aL0L
aL0L
aL0L
aL0L
aL5L
aL4L
aL3L
aL0L
aL2L
aL0L
aL0L
aL0L
aL0L
aL0L
aL0L
aL0L
aL0L
aL5L
aL3L
aL3L
aL0L
aL2L
aL0L
aL0L
aL0L
aL0L
aL0L
aL0L
aL0L
aL0L
aL5L
aL4L
aL3L
aL0L
aL2L
aL0L
aL1L
aL1L
aL0L
aL0L
aL0L
aL0L
aL0L
aL5L
aL0L
aL3L
aL0L
aL1L
aL0L
aL0L
aL0L
aL0L
aL0L
aL1L
aL0L
aL0L
aL5L
aL4L
aL3L
aL0L
aL1L
aL0L
aL0L
aL0L
aL0L
aL0L
aL0L
aL0L
aL0L
aL2L
aL4L
aL2L
aL0L
aL1L
aL0L
aL1L
aL1L
aL0L
aL0L
aL0L
aL0L
aL0L
aL2L
aL4L
aL2L
aL0L
aL1L
aL0L
aL1L
aL1L
aL0L
aL0L
aL0L
aL0L
aL0L
aL1L
aL4L
aL2L
aL1L
aL1L
aL1L
aL0L
aL1L
aL0L
aL0L
aL0L
aL0L
aL0L
aL2L
aL3L
aL2L
aL0L
aL2L
aL0L
aL0L
aL1L
aL0L
aL0L
aL0L
aL0L
aL0L
aL2L
aL2L
aL1L
aL1L
aL2L
aL1L
aL1L
aL1L
aL0L
aL0L
aL2L
aL0L
aL0L
aL1L
aL3L
aL1L
aL0L
aL2L
aL0L
aL0L
aL1L
aL0L
aL0L
aL1L
aL0L
aL0L
aL2L
aL3L
aL2L
aL0L
aL1L
aL0L
aL1L
aL1L
aL0L
aL0L
aL0L
aL0L
aL0L
aL5L
aL0L
aL3L
aL0L
aL2L
aL0L
aL0L
aL0L
aL0L
aL0L
aL0L
aL0L
aL0L
aL1L
aL4L
aL2L
aL0L
aL2L
aL0L
aL1L
aL1L
aL0L
aL0L
aL0L
aL0L
aL0L
aL2L
aL0L
aL1L
aL1L
aL1L
aL0L
aL1L
aL1L
aL0L
aL0L
aL0L
aL1L
aL0L
aL1L
aL4L
aL2L
aL0L
aL1L
aL0L
aL0L
aL1L
aL0L
aL0L
aL0L
aL0L
aL0L
aL4L
aL4L
aL1L
aL0L
aL2L
aL0L
aL1L
aL1L
aL0L
aL0L
aL0L
aL0L
aL0L
aL2L
aL3L
aL1L
aL0L
aL2L
aL0L
aL0L
aL1L
aL0L
aL0L
aL0L
aL0L
aL0L
aL2L
aL4L
aL1L
aL0L
aL2L
aL0L
aL0L
aL1L
aL0L
aL0L
aL0L
aL0L
aL0L
aL5L
aL4L
aL3L
aL0L
aL1L
aL0L
aL0L
aL0L
aL0L
aL0L
aL0L
aL0L
aL0L
aL1L
aL3L
aL2L
aL0L
aL2L
aL0L
aL0L
aL1L
aL0L
aL0L
aL0L
aL0L
aL0L
aL1L
aL3L
aL2L
aL0L
aL1L
aL0L
aL0L
aL1L
aL0L
aL0L
aL0L
aL0L
aL0L
aL2L
aL0L
aL1L
aL0L
aL2L
aL0L
aL1L
aL1L
aL0L
aL0L
aL3L
aL0L
aL0L
aL5L
aL4L
aL3L
aL0L
aL1L
aL0L
aL0L
aL0L
aL0L
aL0L
aL0L
aL0L
aL0L
aL4L
aL0L
aL1L
aL0L
aL1L
aL0L
aL1L
aL1L
aL0L
aL0L
aL4L
aL0L
aL0L
aL1L
aL1L
aL2L
aL0L
aL2L
aL0L
aL0L
aL1L
aL0L
aL0L
aL1L
aL0L
aL0L
aL1L
aL4L
aL2L
aL1L
aL2L
aL0L
aL0L
aL1L
aL0L
aL0L
aL0L
aL0L
aL0L
aL0L
aL5L
aL2L
aL0L
aL2L
aL0L
aL0L
aL1L
aL0L
aL0L
aL0L
aL0L
aL0L
aL4L
aL2L
aL1L
aL1L
aL1L
aL0L
aL1L
aL1L
aL1L
aL0L
aL1L
aL0L
aL0L
aL5L
aL4L
aL3L
aL0L
aL2L
aL0L
aL0L
aL0L
aL0L
aL0L
aL0L
aL0L
aL0L
aL5L
aL4L
aL3L
aL0L
aL2L
aL0L
aL1L
aL1L
aL0L
aL0L
aL0L
aL0L
aL0L
aL2L
aL0L
aL1L
aL0L
aL1L
aL0L
aL1L
aL1L
aL0L
aL0L
aL0L
aL0L
aL0L
aL2L
aL3L
aL1L
aL0L
aL2L
aL0L
aL1L
aL1L
aL0L
aL0L
aL0L
aL0L
aL0L
aL2L
aL3L
aL2L
aL0L
aL1L
aL0L
aL1L
aL1L
aL0L
aL0L
aL0L
aL0L
aL0L
aL5L
aL4L
aL3L
aL0L
aL1L
aL0L
aL0L
aL0L
aL0L
aL0L
aL0L
aL0L
aL0L
aL5L
aL4L
aL3L
aL0L
aL0L
aL0L
aL0L
aL1L
aL0L
aL0L
aL0L
aL0L
aL0L
aL5L
aL4L
aL3L
aL0L
aL2L
aL0L
aL0L
aL1L
aL0L
aL0L
aL1L
aL0L
aL0L
aL5L
aL4L
aL3L
aL0L
aL1L
aL0L
aL0L
aL1L
aL0L
aL0L
aL0L
aL0L
aL0L
aL5L
aL0L
aL3L
aL0L
aL2L
aL0L
aL0L
aL0L
aL0L
aL0L
aL0L
aL0L
aL0L
aL3L
aL2L
aL0L
aL0L
aL2L
aL0L
aL1L
aL1L
aL1L
aL0L
aL2L
aL1L
aL0L
aL0L
aL5L
aL2L
aL0L
aL2L
aL0L
aL0L
aL1L
aL0L
aL0L
aL0L
aL0L
aL0L
aL2L
aL0L
aL2L
aL0L
aL1L
aL0L
aL1L
aL1L
aL0L
aL0L
aL1L
aL0L
aL0L
aL1L
aL0L
aL2L
aL0L
aL2L
aL0L
aL0L
aL1L
aL0L
aL0L
aL0L
aL0L
aL0L
aL5L
aL3L
aL3L
aL0L
aL1L
aL0L
aL0L
aL1L
aL0L
aL0L
aL0L
aL0L
aL0L
aL0L
aL5L
aL2L
aL0L
aL2L
aL0L
aL0L
aL1L
aL0L
aL0L
aL1L
aL0L
aL0L
aL3L
aL0L
aL0L
aL1L
aL1L
aL0L
aL1L
aL1L
aL0L
aL0L
aL0L
aL0L
aL0L
aL5L
aL4L
aL3L
aL0L
aL2L
aL0L
aL0L
aL0L
aL0L
aL0L
aL0L
aL0L
aL0L
aL1L
aL3L
aL2L
aL0L
aL1L
aL0L
aL0L
aL1L
aL0L
aL0L
aL0L
aL0L
aL0L
aL1L
aL4L
aL2L
aL0L
aL1L
aL0L
aL1L
aL1L
aL0L
aL0L
aL0L
aL0L
aL0L
aL5L
aL4L
aL3L
aL0L
aL1L
aL0L
aL0L
aL1L
aL0L
aL0L
aL0L
aL0L
aL0L
aL5L
aL4L
aL3L
aL0L
aL1L
aL0L
aL0L
aL0L
aL0L
aL0L
aL0L
aL1L
aL0L
aL2L
aL4L
aL2L
aL0L
aL2L
aL0L
aL0L
aL1L
aL0L
aL0L
aL0L
aL0L
aL0L
aL5L
aL4L
aL3L
aL0L
aL0L
aL0L
aL1L
aL1L
aL0L
aL0L
aL0L
aL0L
aL0L
aL3L
aL2L
aL0L
aL1L
aL1L
aL2L
aL1L
aL1L
aL1L
aL0L
aL0L
aL0L
aL0L
aL5L
aL0L
aL3L
aL1L
aL2L
aL1L
aL1L
aL1L
aL0L
aL0L
aL0L
aL0L
aL0L
aL1L
aL3L
aL2L
aL0L
aL0L
aL0L
aL0L
aL1L
aL0L
aL0L
aL0L
aL0L
aL0L
aL5L
aL4L
aL3L
aL0L
aL1L
aL0L
aL1L
aL0L
aL0L
aL0L
aL0L
aL0L
aL0L
aL0L
aL5L
aL2L
aL1L
aL1L
aL0L
aL0L
aL1L
aL0L
aL0L
aL0L
aL0L
aL0L
aL1L
aL4L
aL2L
aL0L
aL2L
aL0L
aL0L
aL1L
aL0L
aL0L
aL3L
aL0L
aL0L
aL5L
aL4L
aL3L
aL0L
aL2L
aL0L
aL0L
aL0L
aL0L
aL0L
aL0L
aL0L
aL0L
aL1L
aL4L
aL2L
aL0L
aL2L
aL0L
aL0L
aL1L
aL0L
aL0L
aL0L
aL0L
aL0L
aL5L
aL4L
aL3L
aL0L
aL1L
aL0L
aL1L
aL1L
aL0L
aL0L
aL0L
aL0L
aL0L
aL1L
aL4L
aL2L
aL0L
aL0L
aL0L
aL1L
aL1L
aL0L
aL0L
aL0L
aL0L
aL0L
aL1L
aL4L
aL2L
aL0L
aL1L
aL0L
aL1L
aL1L
aL0L
aL0L
aL0L
aL0L
aL0L
aL0L
aL5L
aL2L
aL0L
aL2L
aL0L
aL0L
aL1L
aL0L
aL0L
aL0L
aL0L
aL0L
aL3L
aL2L
aL0L
aL1L
aL2L
aL0L
aL1L
aL1L
aL1L
aL0L
aL2L
aL1L
aL0L
aL3L
aL3L
aL2L
aL0L
aL2L
aL0L
aL1L
aL1L
aL1L
aL0L
aL0L
aL0L
aL0L
aL0L
aL5L
aL2L
aL0L
aL2L
aL0L
aL0L
aL1L
aL0L
aL0L
aL0L
aL0L
aL0L
aL3L
aL2L
aL0L
aL1L
aL2L
aL2L
aL1L
aL1L
aL1L
aL0L
aL6L
aL0L
aL0L
aL2L
aL4L
aL1L
aL1L
aL1L
aL0L
aL1L
aL1L
aL0L
aL0L
aL1L
aL0L
aL0L
aL2L
aL0L
aL2L
aL1L
aL2L
aL0L
aL0L
aL1L
aL0L
aL0L
aL0L
aL0L
aL0L
aL2L
aL3L
aL1L
aL0L
aL2L
aL0L
aL0L
aL1L
aL0L
aL0L
aL0L
aL0L
aL0L
aL2L
aL0L
aL1L
aL0L
aL2L
aL0L
aL1L
aL1L
aL0L
aL0L
aL0L
aL0L
aL0L
aL0L
aL5L
aL2L
aL0L
aL2L
aL0L
aL0L
aL1L
aL0L
aL0L
aL0L
aL0L
aL0L
aL0L
aL5L
aL2L
aL0L
aL2L
aL0L
aL0L
aL1L
aL0L
aL0L
aL0L
aL0L
aL0L
aL1L
aL4L
aL2L
aL1L
aL2L
aL2L
aL0L
aL1L
aL0L
aL0L
aL0L
aL1L
aL0L
aL2L
aL0L
aL2L
aL0L
aL1L
aL0L
aL0L
aL1L
aL0L
aL0L
aL0L
aL0L
aL0L
aL5L
aL4L
aL3L
aL0L
aL1L
aL0L
aL1L
aL0L
aL0L
aL0L
aL0L
aL0L
aL0L
aL1L
aL3L
aL2L
aL0L
aL2L
aL0L
aL0L
aL1L
aL0L
aL0L
aL0L
aL0L
aL0L
aL0L
aL5L
aL2L
aL0L
aL1L
aL0L
aL0L
aL1L
aL0L
aL0L
aL0L
aL0L
aL0L
aL5L
aL4L
aL3L
aL0L
aL1L
aL0L
aL1L
aL1L
aL0L
aL0L
aL0L
aL0L
aL0L
aL1L
aL0L
aL2L
aL0L
aL1L
aL0L
aL0L
aL1L
aL0L
aL0L
aL0L
aL0L
aL0L
aL1L
aL3L
aL2L
aL0L
aL2L
aL0L
aL0L
aL1L
aL0L
aL0L
aL0L
aL0L
aL0L
aL5L
aL4L
aL3L
aL0L
aL2L
aL0L
aL0L
aL1L
aL0L
aL0L
aL0L
aL0L
aL0L
aL4L
aL0L
aL1L
aL0L
aL1L
aL0L
aL1L
aL1L
aL0L
aL0L
aL2L
aL0L
aL0L
aL0L
aL5L
aL2L
aL0L
aL1L
aL0L
aL0L
aL1L
aL0L
aL0L
aL0L
aL0L
aL0L
aL2L
aL0L
aL2L
aL0L
aL1L
aL0L
aL1L
aL1L
aL0L
aL0L
aL2L
aL0L
aL0L
aL1L
aL3L
aL2L
aL0L
aL1L
aL0L
aL0L
aL1L
aL0L
aL0L
aL0L
aL0L
aL0L
aL5L
aL3L
aL3L
aL0L
aL1L
aL0L
aL0L
aL0L
aL0L
aL0L
aL0L
aL0L
aL0L
aL2L
aL3L
aL1L
aL0L
aL2L
aL0L
aL1L
aL1L
aL0L
aL0L
aL0L
aL0L
aL0L
aL5L
aL4L
aL3L
aL0L
aL1L
aL0L
aL1L
aL0L
aL0L
aL0L
aL0L
aL0L
aL0L
aL3L
aL0L
aL0L
aL0L
aL2L
aL0L
aL1L
aL1L
aL0L
aL0L
aL0L
aL0L
aL0L
aL0L
aL5L
aL2L
aL0L
aL2L
aL0L
aL0L
aL1L
aL0L
aL0L
aL0L
aL0L
aL0L
aL2L
aL2L
aL1L
aL1L
aL2L
aL0L
aL1L
aL1L
aL0L
aL0L
aL0L
aL0L
aL0L
aL2L
aL4L
aL2L
aL0L
aL1L
aL0L
aL1L
aL1L
aL0L
aL0L
aL0L
aL0L
aL0L
aL5L
aL4L
aL3L
aL0L
aL1L
aL0L
aL0L
aL0L
aL0L
aL0L
aL0L
aL0L
aL0L
aL5L
aL4L
aL3L
aL0L
aL2L
aL0L
aL0L
aL0L
aL0L
aL0L
aL0L
aL0L
aL0L
aL0L
aL5L
aL2L
aL0L
aL2L
aL0L
aL0L
aL1L
aL0L
aL0L
aL0L
aL0L
aL0L
aL0L
aL5L
aL2L
aL0L
aL2L
aL0L
aL0L
aL1L
aL0L
aL0L
aL0L
aL0L
aL0L
aL0L
aL5L
aL2L
aL0L
aL2L
aL0L
aL0L
aL1L
aL0L
aL0L
aL0L
aL0L
aL0L
aL4L
aL0L
aL1L
aL1L
aL1L
aL0L
aL1L
aL1L
aL0L
aL0L
aL0L
aL0L
aL0L
aL5L
aL3L
aL3L
aL0L
aL2L
aL0L
aL0L
aL1L
aL0L
aL0L
aL0L
aL0L
aL0L
aL1L
aL4L
aL2L
aL0L
aL2L
aL0L
aL0L
aL1L
aL0L
aL0L
aL1L
aL0L
aL0L
aL2L
aL0L
aL1L
aL1L
aL2L
aL0L
aL0L
aL1L
aL0L
aL0L
aL3L
aL0L
aL0L
aL5L
aL0L
aL3L
aL0L
aL1L
aL0L
aL1L
aL1L
aL0L
aL0L
aL0L
aL0L
aL0L
aL0L
aL5L
aL2L
aL0L
aL2L
aL0L
aL0L
aL1L
aL0L
aL0L
aL0L
aL0L
aL0L
aL5L
aL4L
aL3L
aL0L
aL2L
aL0L
aL0L
aL0L
aL0L
aL0L
aL0L
aL0L
aL0L
aL2L
aL3L
aL2L
aL0L
aL2L
aL0L
aL0L
aL1L
aL0L
aL0L
aL0L
aL0L
aL0L
aL5L
aL4L
aL3L
aL0L
aL0L
aL1L
aL1L
aL1L
aL0L
aL0L
aL0L
aL0L
aL0L
aL5L
aL4L
aL3L
aL0L
aL2L
aL0L
aL1L
aL0L
aL0L
aL0L
aL0L
aL0L
aL0L
aL5L
aL4L
aL3L
aL0L
aL2L
aL0L
aL0L
aL1L
aL0L
aL0L
aL0L
aL0L
aL0L
aL3L
aL4L
aL1L
aL1L
aL1L
aL0L
aL1L
aL1L
aL0L
aL0L
aL0L
aL0L
aL0L
aL5L
aL3L
aL3L
aL1L
aL0L
aL0L
aL1L
aL1L
aL0L
aL0L
aL0L
aL0L
aL0L
aL1L
aL3L
aL2L
aL0L
aL2L
aL0L
aL0L
aL1L
aL0L
aL0L
aL0L
aL0L
aL0L
aL2L
aL0L
aL2L
aL0L
aL1L
aL0L
aL0L
aL1L
aL0L
aL0L
aL0L
aL0L
aL0L
aL3L
aL4L
aL1L
aL1L
aL2L
aL0L
aL1L
aL1L
aL0L
aL0L
aL0L
aL0L
aL0L
aL0L
aL5L
aL2L
aL0L
aL0L
aL0L
aL1L
aL1L
aL0L
aL0L
aL0L
aL0L
aL0L
aL5L
aL4L
aL3L
aL0L
aL1L
aL0L
aL0L
aL1L
aL0L
aL0L
aL0L
aL0L
aL0L
aL2L
aL0L
aL0L
aL0L
aL1L
aL0L
aL1L
aL1L
aL0L
aL0L
aL0L
aL0L
aL0L
aL5L
aL3L
aL3L
aL0L
aL1L
aL0L
aL0L
aL1L
aL0L
aL0L
aL0L
aL0L
aL0L
aL2L
aL0L
aL1L
aL1L
aL1L
aL0L
aL1L
aL1L
aL0L
aL0L
aL0L
aL0L
aL0L
aL5L
aL3L
aL3L
aL0L
aL0L
aL0L
aL1L
aL1L
aL0L
aL0L
aL0L
aL0L
aL0L
aL5L
aL4L
aL3L
aL0L
aL1L
aL0L
aL0L
aL1L
aL0L
aL0L
aL0L
aL0L
aL0L
aL0L
aL5L
aL1L
aL0L
aL2L
aL0L
aL0L
aL1L
aL0L
aL0L
aL0L
aL0L
aL0L
aL1L
aL4L
aL2L
aL0L
aL2L
aL0L
aL0L
aL1L
aL0L
aL0L
aL0L
aL0L
aL0L
aL4L
aL4L
aL1L
aL0L
aL2L
aL0L
aL1L
aL1L
aL0L
aL0L
aL2L
aL0L
aL0L
aL1L
aL3L
aL2L
aL0L
aL1L
aL0L
aL1L
aL1L
aL0L
aL0L
aL0L
aL0L
aL0L
aL5L
aL4L
aL3L
aL0L
aL1L
aL0L
aL0L
aL0L
aL0L
aL0L
aL0L
aL0L
aL0L
aL5L
aL4L
aL3L
aL0L
aL1L
aL0L
aL0L
aL0L
aL0L
aL0L
aL0L
aL0L
aL0L
aL1L
aL1L
aL2L
aL0L
aL2L
aL0L
aL0L
aL1L
aL0L
aL0L
aL0L
aL0L
aL0L
aL5L
aL4L
aL3L
aL0L
aL1L
aL0L
aL1L
aL0L
aL0L
aL0L
aL0L
aL0L
aL0L
aL0L
aL5L
aL2L
aL0L
aL2L
aL0L
aL0L
aL1L
aL0L
aL0L
aL0L
aL0L
aL0L
aL2L
aL4L
aL2L
aL0L
aL1L
aL0L
aL1L
aL1L
aL0L
aL0L
aL0L
aL0L
aL0L
aL2L
aL0L
aL1L
aL0L
aL2L
aL0L
aL1L
aL1L
aL0L
aL0L
aL0L
aL0L
aL0L
aL3L
aL2L
aL0L
aL1L
aL2L
aL0L
aL1L
aL1L
aL1L
aL0L
aL0L
aL0L
aL0L
aL5L
aL4L
aL3L
aL0L
aL2L
aL0L
aL0L
aL1L
aL0L
aL0L
aL0L
aL0L
aL0L
aL2L
aL4L
aL2L
aL0L
aL2L
aL0L
aL1L
aL1L
aL0L
aL0L
aL0L
aL0L
aL0L
aL3L
aL0L
aL2L
aL0L
aL1L
aL0L
aL1L
aL1L
aL0L
aL0L
aL4L
aL1L
aL0L
aL1L
aL4L
aL2L
aL0L
aL1L
aL0L
aL1L
aL1L
aL0L
aL0L
aL0L
aL0L
aL0L
aL1L
aL4L
aL2L
aL1L
aL2L
aL0L
aL0L
aL1L
aL0L
aL0L
aL1L
aL0L
aL0L
aL5L
aL4L
aL3L
aL0L
aL2L
aL0L
aL1L
aL0L
aL0L
aL0L
aL0L
aL0L
aL0L
aL3L
aL1L
aL1L
aL0L
aL2L
aL0L
aL1L
aL1L
aL0L
aL0L
aL1L
aL1L
aL0L
aL2L
aL4L
aL2L
aL0L
aL2L
aL0L
aL0L
aL1L
aL0L
aL0L
aL0L
aL0L
aL0L
aL3L
aL4L
aL2L
aL1L
aL2L
aL0L
aL1L
aL1L
aL0L
aL0L
aL5L
aL0L
aL0L
aL1L
aL3L
aL2L
aL0L
aL2L
aL0L
aL0L
aL1L
aL0L
aL0L
aL1L
aL0L
aL0L
aL0L
aL5L
aL2L
aL0L
aL2L
aL0L
aL0L
aL1L
aL0L
aL0L
aL1L
aL0L
aL0L
aL2L
aL1L
aL2L
aL0L
aL2L
aL0L
aL1L
aL1L
aL0L
aL0L
aL0L
aL0L
aL0L
aL1L
aL3L
aL2L
aL0L
aL2L
aL0L
aL0L
aL1L
aL0L
aL0L
aL0L
aL0L
aL0L
aL2L
aL3L
aL2L
aL0L
aL2L
aL0L
aL0L
aL1L
aL0L
aL0L
aL0L
aL0L
aL0L
aL2L
aL4L
aL1L
aL0L
aL2L
aL0L
aL0L
aL1L
aL0L
aL0L
aL0L
aL0L
aL0L
aL5L
aL4L
aL3L
aL0L
aL1L
aL0L
aL1L
aL0L
aL0L
aL0L
aL0L
aL0L
aL0L
aL4L
aL0L
aL1L
aL0L
aL0L
aL0L
aL1L
aL1L
aL0L
aL0L
aL0L
aL0L
aL0L
aL2L
aL0L
aL1L
aL0L
aL2L
aL0L
aL1L
aL1L
aL0L
aL0L
aL0L
aL1L
aL0L
aL2L
aL0L
aL1L
aL0L
aL2L
aL0L
aL1L
aL1L
aL0L
aL0L
aL1L
aL0L
aL0L
aL3L
aL4L
aL2L
aL0L
aL0L
aL0L
aL1L
aL1L
aL0L
aL0L
aL0L
aL0L
aL0L
aL2L
aL0L
aL1L
aL0L
aL2L
aL0L
aL0L
aL1L
aL0L
aL0L
aL0L
aL1L
aL0L
aL2L
aL3L
aL1L
aL0L
aL2L
aL0L
aL1L
aL1L
aL0L
aL0L
aL0L
aL0L
aL0L
aL2L
aL0L
aL2L
aL1L
aL1L
aL2L
aL1L
aL1L
aL0L
aL0L
aL0L
aL0L
aL0L
aL1L
aL4L
aL2L
aL1L
aL2L
aL0L
aL1L
aL1L
aL0L
aL0L
aL0L
aL0L
aL0L
aL5L
aL4L
aL3L
aL0L
aL0L
aL0L
aL1L
aL1L
aL0L
aL0L
aL0L
aL0L
aL0L
aL5L
aL4L
aL3L
aL0L
aL2L
aL0L
aL0L
aL0L
aL0L
aL0L
aL0L
aL0L
aL0L
aL5L
aL4L
aL3L
aL1L
aL1L
aL0L
aL0L
aL1L
aL0L
aL0L
aL0L
aL0L
aL0L
aL2L
aL1L
aL2L
aL0L
aL2L
aL0L
aL1L
aL1L
aL0L
aL0L
aL0L
aL0L
aL0L
aL2L
aL2L
aL1L
aL0L
aL2L
aL0L
aL1L
aL1L
aL0L
aL0L
aL4L
aL0L
aL0L
aL5L
aL4L
aL3L
aL0L
aL1L
aL0L
aL1L
aL0L
aL0L
aL0L
aL0L
aL0L
aL0L
aL1L
aL0L
aL2L
aL0L
aL1L
aL0L
aL0L
aL1L
aL0L
aL0L
aL1L
aL0L
aL0L
aL4L
aL1L
aL2L
aL0L
aL2L
aL0L
aL1L
aL1L
aL0L
aL0L
aL0L
aL0L
aL0L
aL3L
aL0L
aL1L
aL0L
aL2L
aL0L
aL1L
aL1L
aL0L
aL0L
aL0L
aL0L
aL0L
aL1L
aL3L
aL2L
aL0L
aL2L
aL0L
aL0L
aL1L
aL0L
aL0L
aL0L
aL0L
aL0L
aL1L
aL3L
aL2L
aL0L
aL2L
aL0L
aL0L
aL1L
aL0L
aL0L
aL0L
aL0L
aL0L
aL0L
aL5L
aL2L
aL0L
aL0L
aL0L
aL1L
aL1L
aL0L
aL0L
aL0L
aL0L
aL0L
aL1L
aL3L
aL2L
aL0L
aL2L
aL0L
aL0L
aL1L
aL0L
aL0L
aL0L
aL0L
aL0L
aL1L
aL4L
aL2L
aL1L
aL1L
aL0L
aL0L
aL1L
aL0L
aL0L
aL0L
aL0L
aL0L
aL2L
aL4L
aL2L
aL0L
aL0L
aL0L
aL1L
aL1L
aL0L
aL0L
aL0L
aL0L
aL0L
aL4L
aL2L
aL0L
aL1L
aL1L
aL0L
aL1L
aL1L
aL0L
aL0L
aL4L
aL0L
aL0L
aL2L
aL0L
aL2L
aL0L
aL2L
aL0L
aL1L
aL1L
aL0L
aL0L
aL0L
aL0L
aL0L
aL1L
aL4L
aL2L
aL0L
aL2L
aL0L
aL0L
aL1L
aL0L
aL0L
aL0L
aL0L
aL0L
aL3L
aL4L
aL1L
aL0L
aL1L
aL0L
aL1L
aL1L
aL0L
aL0L
aL0L
aL0L
aL0L
aL0L
aL5L
aL2L
aL0L
aL2L
aL0L
aL0L
aL1L
aL0L
aL0L
aL0L
aL0L
aL0L
aL1L
aL3L
aL1L
aL0L
aL2L
aL0L
aL1L
aL1L
aL0L
aL0L
aL0L
aL0L
aL0L
aL5L
aL4L
aL3L
aL0L
aL2L
aL0L
aL0L
aL0L
aL0L
aL0L
aL1L
aL0L
aL0L
aL3L
aL0L
aL2L
aL0L
aL0L
aL0L
aL1L
aL1L
aL0L
aL0L
aL3L
aL0L
aL0L
aL0L
aL5L
aL2L
aL0L
aL2L
aL0L
aL0L
aL1L
aL0L
aL0L
aL0L
aL0L
aL0L
aL5L
aL4L
aL3L
aL0L
aL1L
aL0L
aL1L
aL1L
aL0L
aL0L
aL0L
aL0L
aL0L
aL0L
aL5L
aL2L
aL0L
aL1L
aL0L
aL0L
aL1L
aL0L
aL0L
aL0L
aL0L
aL0L
aL1L
aL3L
aL2L
aL0L
aL1L
aL0L
aL0L
aL1L
aL0L
aL0L
aL0L
aL0L
aL0L
aL2L
aL4L
aL1L
aL0L
aL2L
aL0L
aL0L
aL1L
aL0L
aL0L
aL1L
aL0L
aL0L
aL5L
aL4L
aL3L
aL0L
aL1L
aL0L
aL0L
aL0L
aL0L
aL0L
aL0L
aL0L
aL0L
aL2L
aL0L
aL1L
aL1L
aL1L
aL2L
aL1L
aL1L
aL0L
aL0L
aL0L
aL0L
aL0L
aL5L
aL4L
aL3L
aL0L
aL2L
aL0L
aL1L
aL1L
aL0L
aL0L
aL0L
aL0L
aL0L
aL0L
aL5L
aL2L
aL0L
aL2L
aL0L
aL0L
aL1L
aL0L
aL0L
aL0L
aL0L
aL0L
aL1L
aL0L
aL2L
aL0L
aL2L
aL0L
aL1L
aL1L
aL0L
aL0L
aL0L
aL0L
aL0L
aL2L
aL3L
aL1L
aL0L
aL2L
aL0L
aL0L
aL1L
aL0L
aL0L
aL2L
aL0L
aL0L
aL1L
aL4L
aL2L
aL0L
aL2L
aL0L
aL0L
aL1L
aL0L
aL0L
aL0L
aL0L
aL0L
aL0L
aL5L
aL2L
aL0L
aL1L
aL0L
aL0L
aL1L
aL0L
aL0L
aL0L
aL0L
aL0L
aL3L
aL0L
aL1L
aL1L
aL1L
aL0L
aL1L
aL1L
aL0L
aL0L
aL0L
aL0L
aL0L
aL2L
aL0L
aL1L
aL0L
aL2L
aL0L
aL1L
aL1L
aL0L
aL0L
aL2L
aL0L
aL0L
aL0L
aL5L
aL2L
aL0L
aL1L
aL0L
aL0L
aL1L
aL0L
aL0L
aL0L
aL0L
aL0L
aL5L
aL4L
aL3L
aL0L
aL1L
aL0L
aL0L
aL0L
aL0L
aL0L
aL0L
aL0L
aL0L
aL5L
aL4L
aL3L
aL0L
aL1L
aL0L
aL0L
aL0L
aL0L
aL0L
aL0L
aL0L
aL0L
aL0L
aL5L
aL2L
aL0L
aL2L
aL0L
aL0L
aL1L
aL0L
aL0L
aL1L
aL0L
aL0L
aL2L
aL4L
aL2L
aL0L
aL2L
aL0L
aL0L
aL1L
aL0L
aL0L
aL0L
aL0L
aL0L
aL1L
aL4L
aL2L
aL1L
aL1L
aL0L
aL0L
aL1L
aL0L
aL0L
aL1L
aL0L
aL0L
aL4L
aL0L
aL1L
aL1L
aL1L
aL0L
aL1L
aL1L
aL0L
aL0L
aL1L
aL0L
aL1L
aL3L
aL0L
aL1L
aL0L
aL2L
aL0L
aL1L
aL1L
aL0L
aL0L
aL0L
aL0L
aL0L
aL0L
aL5L
aL2L
aL0L
aL1L
aL0L
aL0L
aL1L
aL0L
aL0L
aL0L
aL0L
aL0L
aL2L
aL0L
aL1L
aL1L
aL2L
aL0L
aL1L
aL1L
aL0L
aL0L
aL3L
aL0L
aL0L
aL3L
aL0L
aL1L
aL0L
aL2L
aL0L
aL1L
aL1L
aL0L
aL0L
aL0L
aL0L
aL0L
aL5L
aL3L
aL3L
aL0L
aL1L
aL0L
aL0L
aL1L
aL0L
aL0L
aL0L
aL0L
aL0L
aL5L
aL4L
aL3L
aL0L
aL2L
aL0L
aL0L
aL1L
aL0L
aL0L
aL0L
aL0L
aL0L
aL1L
aL4L
aL2L
aL0L
aL1L
aL0L
aL0L
aL1L
aL0L
aL0L
aL0L
aL0L
aL0L
aL0L
aL5L
aL2L
aL0L
aL1L
aL0L
aL1L
aL1L
aL0L
aL0L
aL0L
aL0L
aL0L
aL2L
aL3L
aL2L
aL0L
aL2L
aL0L
aL0L
aL1L
aL0L
aL0L
aL1L
aL0L
aL0L
aL1L
aL3L
aL2L
aL0L
aL2L
aL0L
aL0L
aL1L
aL0L
aL0L
aL0L
aL0L
aL0L
aL0L
aL5L
aL2L
aL0L
aL2L
aL0L
aL0L
aL1L
aL0L
aL0L
aL0L
aL0L
aL0L
aL2L
aL4L
aL2L
aL1L
aL2L
aL0L
aL1L
aL1L
aL0L
aL0L
aL0L
aL0L
aL0L
aL2L
aL4L
aL1L
aL0L
aL1L
aL0L
aL1L
aL1L
aL0L
aL0L
aL0L
aL0L
aL0L
aL5L
aL4L
aL3L
aL0L
aL1L
aL0L
aL1L
aL0L
aL0L
aL0L
aL0L
aL0L
aL0L
aL1L
aL0L
aL2L
aL0L
aL2L
aL0L
aL0L
aL1L
aL0L
aL0L
aL0L
aL0L
aL0L
aL1L
aL2L
aL2L
aL0L
aL1L
aL0L
aL0L
aL1L
aL0L
aL0L
aL2L
aL0L
aL0L
aL2L
aL0L
aL2L
aL0L
aL2L
aL0L
aL1L
aL1L
aL0L
aL0L
aL0L
aL0L
aL0L
aL4L
aL2L
aL0L
aL0L
aL1L
aL0L
aL1L
aL1L
aL1L
aL0L
aL0L
aL1L
aL1L
aL5L
aL3L
aL3L
aL0L
aL0L
aL0L
aL1L
aL1L
aL0L
aL0L
aL0L
aL0L
aL0L
aL4L
aL0L
aL1L
aL0L
aL2L
aL0L
aL0L
aL1L
aL0L
aL0L
aL0L
aL0L
aL0L
aL3L
aL0L
aL1L
aL0L
aL1L
aL0L
aL1L
aL1L
aL0L
aL0L
aL0L
aL0L
aL0L
aL0L
aL5L
aL2L
aL0L
aL1L
aL0L
aL1L
aL1L
aL0L
aL0L
aL0L
aL0L
aL0L
aL5L
aL4L
aL3L
aL0L
aL1L
aL1L
aL1L
aL1L
aL0L
aL0L
aL0L
aL0L
aL0L
aL0L
aL5L
aL2L
aL0L
aL0L
aL0L
aL1L
aL1L
aL0L
aL0L
aL0L
aL0L
aL0L
aL5L
aL4L
aL3L
aL0L
aL2L
aL0L
aL0L
aL0L
aL0L
aL0L
aL0L
aL0L
aL0L
aL2L
aL0L
aL2L
aL0L
aL2L
aL0L
aL0L
aL1L
aL0L
aL0L
aL0L
aL0L
aL0L
aL0L
aL5L
aL2L
aL0L
aL1L
aL0L
aL0L
aL1L
aL0L
aL0L
aL0L
aL0L
aL0L
aL5L
aL4L
aL3L
aL0L
aL1L
aL0L
aL1L
aL0L
aL0L
aL0L
aL0L
aL0L
aL0L
aL2L
aL4L
aL2L
aL1L
aL1L
aL1L
aL1L
aL1L
aL0L
aL0L
aL1L
aL1L
aL0L
aL5L
aL4L
aL3L
aL0L
aL1L
aL0L
aL0L
aL0L
aL0L
aL0L
aL0L
aL0L
aL0L
aL4L
aL4L
aL1L
aL0L
aL2L
aL0L
aL1L
aL1L
aL0L
aL0L
aL1L
aL0L
aL0L
aL2L
aL0L
aL1L
aL0L
aL2L
aL0L
aL1L
aL1L
aL0L
aL0L
aL0L
aL0L
aL0L
aL0L
aL5L
aL2L
aL0L
aL2L
aL0L
aL0L
aL1L
aL0L
aL0L
aL0L
aL0L
aL0L
aL5L
aL4L
aL3L
aL0L
aL1L
aL0L
aL0L
aL0L
aL0L
aL0L
aL0L
aL0L
aL0L
aL5L
aL4L
aL3L
aL0L
aL1L
aL0L
aL0L
aL1L
aL0L
aL0L
aL0L
aL0L
aL0L
aL0L
aL5L
aL1L
aL0L
aL2L
aL0L
aL1L
aL1L
aL0L
aL0L
aL0L
aL0L
aL0L
aL2L
aL0L
aL0L
aL1L
aL2L
aL0L
aL0L
aL1L
aL0L
aL0L
aL2L
aL0L
aL0L
aL5L
aL4L
aL3L
aL0L
aL2L
aL0L
aL0L
aL1L
aL0L
aL0L
aL0L
aL0L
aL0L
aL1L
aL4L
aL2L
aL0L
aL2L
aL0L
aL1L
aL1L
aL0L
aL0L
aL2L
aL1L
aL0L
aL3L
aL0L
aL1L
aL1L
aL1L
aL0L
aL1L
aL1L
aL0L
aL0L
aL0L
aL0L
aL0L
aL5L
aL0L
aL3L
aL0L
aL1L
aL0L
aL1L
aL1L
aL0L
aL0L
aL0L
aL1L
aL0L
aL3L
aL4L
aL2L
aL0L
aL1L
aL0L
aL0L
aL1L
aL0L
aL0L
aL0L
aL0L
aL0L
aL5L
aL0L
aL3L
aL0L
aL1L
aL0L
aL0L
aL0L
aL0L
aL0L
aL0L
aL0L
aL0L
aL4L
aL2L
aL0L
aL0L
aL2L
aL0L
aL1L
aL1L
aL1L
aL0L
aL0L
aL0L
aL0L
aL0L
aL5L
aL2L
aL0L
aL2L
aL0L
aL0L
aL1L
aL0L
aL0L
aL0L
aL0L
aL0L
aL2L
aL4L
aL2L
aL1L
aL2L
aL0L
aL1L
aL1L
aL0L
aL0L
aL1L
aL0L
aL0L
aL5L
aL4L
aL3L
aL0L
aL1L
aL0L
aL0L
aL1L
aL0L
aL0L
aL0L
aL0L
aL0L
aL3L
aL0L
aL1L
aL0L
aL1L
aL0L
aL1L
aL1L
aL0L
aL0L
aL3L
aL0L
aL0L
aL5L
aL4L
aL3L
aL1L
aL1L
aL0L
aL0L
aL0L
aL0L
aL0L
aL0L
aL0L
aL0L
aL1L
aL3L
aL2L
aL0L
aL1L
aL0L
aL0L
aL1L
aL0L
aL0L
aL0L
aL0L
aL0L
aL5L
aL0L
aL3L
aL0L
aL1L
aL0L
aL1L
aL1L
aL0L
aL0L
aL0L
aL0L
aL0L
aL1L
aL4L
aL2L
aL0L
aL1L
aL0L
aL1L
aL1L
aL0L
aL0L
aL0L
aL0L
aL0L
aL5L
aL4L
aL3L
aL0L
aL2L
aL0L
aL0L
aL0L
aL0L
aL0L
aL0L
aL0L
aL0L
aL0L
aL5L
aL2L
aL0L
aL2L
aL0L
aL0L
aL1L
aL0L
aL0L
aL0L
aL0L
aL0L
aL1L
aL3L
aL2L
aL0L
aL1L
aL0L
aL0L
aL1L
aL0L
aL0L
aL0L
aL0L
aL0L
aL2L
aL4L
aL2L
aL0L
aL1L
aL0L
aL0L
aL1L
aL0L
aL0L
aL3L
aL0L
aL0L
aL3L
aL0L
aL1L
aL1L
aL2L
aL2L
aL1L
aL1L
aL0L
aL0L
aL1L
aL0L
aL0L
aL5L
aL4L
aL3L
aL0L
aL1L
aL0L
aL0L
aL1L
aL0L
aL0L
aL0L
aL0L
aL0L
aL2L
aL0L
aL1L
aL1L
aL2L
aL2L
aL1L
aL1L
aL0L
aL0L
aL2L
aL0L
aL0L
aL5L
aL4L
aL3L
aL0L
aL1L
aL0L
aL0L
aL0L
aL0L
aL0L
aL0L
aL0L
aL0L
aL1L
aL4L
aL2L
aL0L
aL2L
aL0L
aL0L
aL1L
aL0L
aL0L
aL0L
aL0L
aL0L
aL2L
aL0L
aL2L
aL1L
aL2L
aL0L
aL0L
aL1L
aL0L
aL0L
aL0L
aL0L
aL0L
aL1L
aL3L
aL2L
aL0L
aL1L
aL0L
aL1L
aL1L
aL0L
aL0L
aL1L
aL0L
aL0L
aL2L
aL3L
aL1L
aL1L
aL2L
aL1L
aL1L
aL1L
aL0L
aL0L
aL0L
aL0L
aL0L
aL2L
aL4L
aL1L
aL0L
aL2L
aL0L
aL0L
aL1L
aL0L
aL0L
aL1L
aL0L
aL0L
aL1L
aL4L
aL2L
aL0L
aL1L
aL0L
aL0L
aL1L
aL0L
aL0L
aL0L
aL0L
aL0L
aL2L
aL4L
aL2L
aL0L
aL2L
aL0L
aL0L
aL1L
aL0L
aL0L
aL0L
aL0L
aL0L
aL5L
aL4L
aL3L
aL0L
aL1L
aL0L
aL0L
aL0L
aL0L
aL0L
aL0L
aL0L
aL0L
aL5L
aL4L
aL3L
aL0L
aL0L
aL0L
aL0L
aL1L
aL0L
aL0L
aL0L
aL0L
aL0L
aL2L
aL0L
aL2L
aL0L
aL2L
aL0L
aL1L
aL1L
aL0L
aL0L
aL0L
aL0L
aL0L
aL2L
aL4L
aL1L
aL0L
aL2L
aL0L
aL0L
aL1L
aL0L
aL0L
aL0L
aL0L
aL0L
aL2L
aL2L
aL1L
aL1L
aL1L
aL0L
aL1L
aL1L
aL0L
aL0L
aL0L
aL0L
aL0L
aL0L
aL5L
aL2L
aL0L
aL2L
aL0L
aL0L
aL1L
aL0L
aL0L
aL0L
aL0L
aL0L
aL5L
aL4L
aL3L
aL0L
aL1L
aL0L
aL0L
aL1L
aL0L
aL0L
aL0L
aL0L
aL0L
aL1L
aL3L
aL2L
aL0L
aL2L
aL0L
aL0L
aL1L
aL0L
aL0L
aL0L
aL0L
aL0L
aL1L
aL0L
aL2L
aL0L
aL1L
aL0L
aL1L
aL1L
aL0L
aL0L
aL0L
aL0L
aL0L
aL0L
aL5L
aL2L
aL0L
aL2L
aL0L
aL0L
aL1L
aL0L
aL0L
aL0L
aL0L
aL0L
aL1L
aL3L
aL1L
aL0L
aL1L
aL0L
aL0L
aL1L
aL0L
aL0L
aL0L
aL0L
aL0L
aL3L
aL3L
aL2L
aL1L
aL1L
aL0L
aL1L
aL1L
aL0L
aL0L
aL0L
aL0L
aL0L
aL3L
aL0L
aL2L
aL1L
aL1L
aL0L
aL1L
aL1L
aL0L
aL0L
aL0L
aL0L
aL0L
aL5L
aL4L
aL3L
aL0L
aL2L
aL0L
aL0L
aL0L
aL0L
aL0L
aL0L
aL0L
aL0L
aL2L
aL4L
aL2L
aL0L
aL2L
aL0L
aL0L
aL1L
aL0L
aL0L
aL2L
aL1L
aL0L
aL5L
aL4L
aL3L
aL0L
aL1L
aL0L
aL1L
aL0L
aL0L
aL0L
aL0L
aL0L
aL0L
aL1L
aL3L
aL2L
aL0L
aL0L
aL0L
aL1L
aL1L
aL0L
aL0L
aL0L
aL0L
aL0L
aL2L
aL3L
aL2L
aL0L
aL2L
aL0L
aL0L
aL1L
aL0L
aL0L
aL0L
aL0L
aL0L
aL2L
aL3L
aL2L
aL0L
aL1L
aL0L
aL0L
aL1L
aL0L
aL0L
aL1L
aL0L
aL0L
aL5L
aL4L
aL3L
aL0L
aL1L
aL0L
aL1L
aL1L
aL0L
aL0L
aL0L
aL0L
aL0L
aL5L
aL4L
aL3L
aL0L
aL1L
aL0L
aL0L
aL0L
aL0L
aL0L
aL0L
aL0L
aL0L
aL5L
aL4L
aL3L
aL0L
aL1L
aL0L
aL0L
aL1L
aL0L
aL0L
aL1L
aL0L
aL0L
aL5L
aL3L
aL3L
aL0L
aL2L
aL0L
aL0L
aL1L
aL0L
aL0L
aL1L
aL0L
aL0L
aL5L
aL4L
aL3L
aL0L
aL2L
aL0L
aL0L
aL0L
aL0L
aL0L
aL0L
aL0L
aL0L
aL2L
aL0L
aL1L
aL0L
aL2L
aL0L
aL0L
aL1L
aL0L
aL0L
aL0L
aL0L
aL0L
aL0L
aL5L
aL2L
aL0L
aL0L
aL0L
aL0L
aL1L
aL0L
aL0L
aL0L
aL0L
aL0L
aL2L
aL2L
aL1L
aL0L
aL2L
aL0L
aL1L
aL1L
aL0L
aL0L
aL1L
aL0L
aL0L
aL5L
aL4L
aL3L
aL0L
aL1L
aL0L
aL0L
aL1L
aL0L
aL0L
aL0L
aL0L
aL0L
aL2L
aL0L
aL0L
aL1L
aL2L
aL0L
aL1L
aL1L
aL0L
aL0L
aL0L
aL0L
aL0L
aL0L
aL5L
aL2L
aL0L
aL1L
aL0L
aL0L
aL1L
aL0L
aL0L
aL0L
aL0L
aL0L
aL5L
aL4L
aL3L
aL0L
aL1L
aL0L
aL0L
aL0L
aL0L
aL0L
aL0L
aL0L
aL0L
aL1L
aL3L
aL2L
aL0L
aL1L
aL0L
aL0L
aL1L
aL0L
aL0L
aL0L
aL0L
aL0L
aL5L
aL4L
aL3L
aL0L
aL1L
aL0L
aL0L
aL1L
aL0L
aL0L
aL0L
aL0L
aL0L
aL2L
aL4L
aL2L
aL0L
aL1L
aL0L
aL0L
aL1L
aL0L
aL0L
aL1L
aL0L
aL0L
aL2L
aL3L
aL1L
aL1L
aL1L
aL0L
aL1L
aL1L
aL0L
aL0L
aL0L
aL0L
aL0L
aL2L
aL0L
aL2L
aL0L
aL0L
aL0L
aL1L
aL1L
aL0L
aL0L
aL0L
aL0L
aL0L
aL5L
aL0L
aL3L
aL0L
aL2L
aL0L
aL1L
aL1L
aL0L
aL0L
aL0L
aL0L
aL0L
aL1L
aL3L
aL2L
aL0L
aL1L
aL0L
aL0L
aL1L
aL0L
aL0L
aL0L
aL0L
aL0L
aL3L
aL0L
aL1L
aL1L
aL2L
aL0L
aL1L
aL1L
aL0L
aL0L
aL0L
aL0L
aL0L
aL5L
aL0L
aL3L
aL0L
aL1L
aL0L
aL0L
aL1L
aL0L
aL0L
aL0L
aL0L
aL0L
aL1L
aL3L
aL2L
aL0L
aL1L
aL0L
aL0L
aL1L
aL0L
aL0L
aL0L
aL0L
aL0L
aL2L
aL4L
aL2L
aL0L
aL1L
aL0L
aL1L
aL1L
aL0L
aL0L
aL3L
aL0L
aL0L
aL3L
aL0L
aL2L
aL0L
aL2L
aL0L
aL1L
aL1L
aL0L
aL0L
aL0L
aL0L
aL0L
aL5L
aL4L
aL3L
aL0L
aL2L
aL0L
aL0L
aL1L
aL0L
aL0L
aL0L
aL0L
aL0L
aL5L
aL4L
aL3L
aL0L
aL1L
aL0L
aL0L
aL0L
aL0L
aL0L
aL0L
aL0L
aL0L
aL2L
aL4L
aL2L
aL0L
aL1L
aL0L
aL1L
aL1L
aL0L
aL0L
aL0L
aL0L
aL0L
aL5L
aL4L
aL3L
aL0L
aL1L
aL0L
aL1L
aL0L
aL0L
aL0L
aL0L
aL0L
aL0L
aL1L
aL3L
aL2L
aL0L
aL2L
aL0L
aL0L
aL1L
aL0L
aL0L
aL0L
aL0L
aL0L
aL2L
aL0L
aL1L
aL0L
aL1L
aL0L
aL1L
aL1L
aL0L
aL0L
aL0L
aL0L
aL0L
aL1L
aL3L
aL2L
aL0L
aL1L
aL0L
aL0L
aL1L
aL0L
aL0L
aL0L
aL0L
aL0L
aL1L
aL3L
aL2L
aL0L
aL2L
aL0L
aL0L
aL1L
aL0L
aL0L
aL0L
aL1L
aL0L
aL3L
aL4L
aL2L
aL0L
aL0L
aL0L
aL1L
aL1L
aL0L
aL0L
aL0L
aL0L
aL0L
aL5L
aL3L
aL3L
aL0L
aL1L
aL0L
aL1L
aL0L
aL0L
aL0L
aL0L
aL0L
aL0L
aL2L
aL0L
aL1L
aL0L
aL2L
aL0L
aL0L
aL1L
aL0L
aL0L
aL0L
aL2L
aL0L
aL5L
aL4L
aL3L
aL0L
aL1L
aL0L
aL0L
aL0L
aL0L
aL0L
aL0L
aL0L
aL0L
aL3L
aL0L
aL2L
aL1L
aL2L
aL0L
aL1L
aL1L
aL0L
aL0L
aL0L
aL0L
aL0L
aL3L
aL2L
aL0L
aL1L
aL2L
aL2L
aL1L
aL1L
aL1L
aL0L
aL1L
aL0L
aL1L
aL5L
aL4L
aL3L
aL0L
aL2L
aL0L
aL0L
aL0L
aL0L
aL0L
aL0L
aL0L
aL0L
aL4L
aL0L
aL1L
aL0L
aL1L
aL0L
aL1L
aL1L
aL0L
aL0L
aL0L
aL0L
aL0L
aL4L
aL0L
aL1L
aL1L
aL1L
aL0L
aL1L
aL1L
aL0L
aL0L
aL2L
aL0L
aL0L
aL2L
aL3L
aL1L
aL0L
aL1L
aL0L
aL1L
aL1L
aL0L
aL0L
aL0L
aL0L
aL0L
aL0L
aL5L
aL2L
aL0L
aL2L
aL0L
aL0L
aL1L
aL0L
aL0L
aL1L
aL0L
aL0L
aL0L
aL5L
aL2L
aL0L
aL2L
aL0L
aL0L
aL1L
aL0L
aL0L
aL0L
aL0L
aL0L
aL2L
aL3L
aL2L
aL0L
aL2L
aL0L
aL0L
aL1L
aL0L
aL0L
aL0L
aL0L
aL0L
aL3L
aL2L
aL0L
aL1L
aL1L
aL2L
aL1L
aL1L
aL1L
aL0L
aL2L
aL2L
aL0L
aL0L
aL5L
aL2L
aL1L
aL2L
aL0L
aL0L
aL1L
aL0L
aL0L
aL0L
aL0L
aL0L
aL2L
aL4L
aL2L
aL1L
aL2L
aL0L
aL1L
aL1L
aL0L
aL0L
aL0L
aL0L
aL0L
aL1L
aL4L
aL2L
aL0L
aL1L
aL0L
aL0L
aL1L
aL0L
aL0L
aL0L
aL0L
aL0L
aL2L
aL4L
aL2L
aL0L
aL2L
aL0L
aL0L
aL1L
aL0L
aL0L
aL0L
aL0L
aL0L
aL0L
aL5L
aL2L
aL0L
aL1L
aL0L
aL0L
aL1L
aL0L
aL0L
aL0L
aL0L
aL0L
aL5L
aL3L
aL3L
aL0L
aL1L
aL0L
aL1L
aL1L
aL0L
aL0L
aL0L
aL0L
aL0L
aL4L
aL2L
aL1L
aL0L
aL1L
aL0L
aL1L
aL1L
aL0L
aL0L
aL4L
aL0L
aL0L
aL2L
aL0L
aL1L
aL0L
aL2L
aL0L
aL0L
aL1L
aL0L
aL0L
aL0L
aL1L
aL0L
aL3L
aL4L
aL1L
aL1L
aL1L
aL0L
aL1L
aL1L
aL0L
aL0L
aL3L
aL0L
aL0L
aL5L
aL4L
aL3L
aL0L
aL2L
aL0L
aL0L
aL1L
aL0L
aL0L
aL0L
aL0L
aL0L
aL5L
aL3L
aL3L
aL0L
aL1L
aL0L
aL0L
aL1L
aL0L
aL0L
aL0L
aL0L
aL0L
aL5L
aL4L
aL3L
aL0L
aL1L
aL0L
aL0L
aL0L
aL0L
aL0L
aL0L
aL0L
aL0L
aL1L
aL4L
aL2L
aL0L
aL1L
aL0L
aL0L
aL1L
aL0L
aL0L
aL0L
aL0L
aL0L
aL3L
aL0L
aL1L
aL0L
aL1L
aL0L
aL1L
aL1L
aL0L
aL0L
aL1L
aL0L
aL0L
aL3L
aL4L
aL2L
aL0L
aL2L
aL0L
aL0L
aL1L
aL0L
aL0L
aL0L
aL0L
aL0L
aL5L
aL0L
aL3L
aL0L
aL1L
aL0L
aL0L
aL1L
aL0L
aL0L
aL0L
aL0L
aL0L
aL5L
aL4L
aL3L
aL0L
aL2L
aL0L
aL1L
aL0L
aL0L
aL0L
aL0L
aL0L
aL0L
aL4L
aL0L
aL1L
aL1L
aL2L
aL0L
aL1L
aL1L
aL1L
aL0L
aL1L
aL1L
aL0L
aL1L
aL4L
aL2L
aL0L
aL2L
aL0L
aL0L
aL1L
aL0L
aL0L
aL0L
aL0L
aL0L
aL1L
aL3L
aL2L
aL0L
aL1L
aL0L
aL1L
aL1L
aL0L
aL0L
aL0L
aL0L
aL0L
aL3L
aL0L
aL1L
aL0L
aL2L
aL0L
aL0L
aL1L
aL0L
aL0L
aL0L
aL0L
aL0L
aL5L
aL3L
aL3L
aL0L
aL2L
aL0L
aL0L
aL1L
aL0L
aL0L
aL0L
aL0L
aL0L
aL2L
aL4L
aL2L
aL0L
aL1L
aL0L
aL0L
aL1L
aL0L
aL0L
aL0L
aL0L
aL0L
aL2L
aL0L
aL2L
aL0L
aL1L
aL0L
aL0L
aL1L
aL0L
aL0L
aL0L
aL0L
aL0L
aL0L
aL5L
aL2L
aL0L
aL1L
aL0L
aL1L
aL1L
aL0L
aL0L
aL0L
aL0L
aL0L
aL5L
aL3L
aL3L
aL0L
aL2L
aL0L
aL0L
aL0L
aL0L
aL0L
aL0L
aL0L
aL0L
aL5L
aL3L
aL3L
aL0L
aL0L
aL0L
aL0L
aL1L
aL0L
aL0L
aL0L
aL0L
aL0L
aL1L
aL4L
aL2L
aL0L
aL2L
aL0L
aL0L
aL1L
aL0L
aL0L
aL0L
aL0L
aL0L
aL2L
aL0L
aL1L
aL1L
aL2L
aL2L
aL0L
aL1L
aL0L
aL0L
aL1L
aL0L
aL0L
aL2L
aL2L
aL1L
aL1L
aL1L
aL0L
aL1L
aL1L
aL0L
aL0L
aL0L
aL0L
aL0L
aL1L
aL4L
aL2L
aL0L
aL2L
aL0L
aL0L
aL1L
aL0L
aL0L
aL1L
aL0L
aL0L
aL5L
aL4L
aL3L
aL0L
aL1L
aL0L
aL1L
aL1L
aL0L
aL0L
aL0L
aL0L
aL0L
aL2L
aL3L
aL1L
aL0L
aL1L
aL0L
aL1L
aL1L
aL0L
aL0L
aL0L
aL0L
aL0L
aL5L
aL0L
aL3L
aL0L
aL2L
aL0L
aL0L
aL1L
aL0L
aL0L
aL0L
aL0L
aL0L
aL4L
aL0L
aL1L
aL1L
aL1L
aL0L
aL1L
aL1L
aL0L
aL0L
aL0L
aL0L
aL0L
aL1L
aL4L
aL2L
aL0L
aL2L
aL0L
aL1L
aL1L
aL0L
aL0L
aL0L
aL0L
aL0L
aL2L
aL1L
aL2L
aL0L
aL2L
aL0L
aL1L
aL1L
aL0L
aL0L
aL0L
aL0L
aL0L
aL1L
aL3L
aL2L
aL0L
aL1L
aL0L
aL1L
aL1L
aL0L
aL0L
aL0L
aL0L
aL0L
aL5L
aL0L
aL3L
aL0L
aL2L
aL0L
aL1L
aL0L
aL0L
aL0L
aL0L
aL0L
aL0L
aL5L
aL0L
aL3L
aL0L
aL2L
aL0L
aL0L
aL0L
aL0L
aL0L
aL0L
aL0L
aL0L
aL2L
aL4L
aL2L
aL0L
aL2L
aL0L
aL0L
aL1L
aL0L
aL0L
aL1L
aL0L
aL0L
aL1L
aL3L
aL1L
aL0L
aL1L
aL0L
aL1L
aL1L
aL0L
aL0L
aL1L
aL0L
aL0L
aL5L
aL3L
aL3L
aL0L
aL1L
aL0L
aL0L
aL0L
aL0L
aL0L
aL0L
aL0L
aL0L
aL5L
aL4L
aL3L
aL0L
aL1L
aL0L
aL1L
aL0L
aL0L
aL0L
aL0L
aL0L
aL0L
aL3L
aL2L
aL0L
aL1L
aL1L
aL0L
aL1L
aL1L
aL0L
aL0L
aL0L
aL0L
aL0L
aL5L
aL4L
aL3L
aL0L
aL1L
aL0L
aL0L
aL1L
aL0L
aL0L
aL0L
aL0L
aL0L
aL1L
aL4L
aL2L
aL1L
aL2L
aL0L
aL0L
aL1L
aL0L
aL0L
aL0L
aL0L
aL0L
aL1L
aL3L
aL1L
aL1L
aL0L
aL0L
aL1L
aL1L
aL0L
aL0L
aL0L
aL0L
aL0L
aL2L
aL4L
aL2L
aL0L
aL2L
aL0L
aL1L
aL1L
aL0L
aL0L
aL0L
aL0L
aL0L
aL2L
aL0L
aL1L
aL1L
aL1L
aL0L
aL1L
aL1L
aL0L
aL0L
aL2L
aL0L
aL0L
aL5L
aL3L
aL3L
aL0L
aL2L
aL0L
aL0L
aL1L
aL0L
aL0L
aL0L
aL0L
aL0L
aL1L
aL4L
aL1L
aL0L
aL2L
aL0L
aL0L
aL1L
aL0L
aL0L
aL0L
aL0L
aL0L
aL5L
aL4L
aL3L
aL0L
aL1L
aL0L
aL0L
aL0L
aL0L
aL0L
aL1L
aL0L
aL0L
aL4L
aL0L
aL1L
aL1L
aL1L
aL2L
aL1L
aL1L
aL0L
aL0L
aL0L
aL0L
aL0L
aL5L
aL1L
aL3L
aL0L
aL2L
aL0L
aL0L
aL0L
aL0L
aL0L
aL0L
aL0L
aL0L
aL2L
aL0L
aL1L
aL1L
aL1L
aL0L
aL1L
aL1L
aL0L
aL0L
aL0L
aL0L
aL0L
aL2L
aL2L
aL1L
aL1L
aL1L
aL0L
aL1L
aL1L
aL0L
aL0L
aL3L
aL0L
aL0L
aL5L
aL4L
aL3L
aL0L
aL2L
aL0L
aL0L
aL1L
aL0L
aL0L
aL0L
aL0L
aL0L
aL2L
aL3L
aL1L
aL0L
aL2L
aL0L
aL0L
aL1L
aL0L
aL0L
aL1L
aL0L
aL0L
aL2L
aL2L
aL0L
aL1L
aL2L
aL0L
aL1L
aL1L
aL1L
aL0L
aL1L
aL3L
aL2L
aL1L
aL3L
aL2L
aL0L
aL1L
aL0L
aL0L
aL1L
aL0L
aL0L
aL0L
aL0L
aL0L
aL0L
aL5L
aL2L
aL0L
aL1L
aL0L
aL1L
aL1L
aL0L
aL0L
aL0L
aL0L
aL0L
aL0L
aL5L
aL2L
aL0L
aL2L
aL0L
aL0L
aL1L
aL0L
aL0L
aL0L
aL0L
aL0L
aL5L
aL4L
aL3L
aL0L
aL1L
aL0L
aL0L
aL0L
aL0L
aL0L
aL0L
aL0L
aL0L
aL0L
aL5L
aL2L
aL0L
aL2L
aL0L
aL0L
aL1L
aL0L
aL0L
aL0L
aL0L
aL0L
aL2L
aL3L
aL2L
aL0L
aL2L
aL0L
aL0L
aL1L
aL0L
aL0L
aL0L
aL0L
aL0L
aL2L
aL0L
aL1L
aL0L
aL1L
aL0L
aL1L
aL1L
aL0L
aL0L
aL1L
aL0L
aL0L
aL2L
aL4L
aL2L
aL0L
aL2L
aL0L
aL0L
aL1L
aL0L
aL0L
aL0L
aL0L
aL0L
aL1L
aL4L
aL2L
aL0L
aL2L
aL0L
aL0L
aL1L
aL0L
aL0L
aL0L
aL0L
aL0L
aL0L
aL5L
aL2L
aL0L
aL1L
aL0L
aL0L
aL1L
aL0L
aL0L
aL0L
aL0L
aL0L
aL3L
aL0L
aL1L
aL1L
aL2L
aL0L
aL0L
aL1L
aL0L
aL0L
aL2L
aL0L
aL0L
aL5L
aL1L
aL3L
aL0L
aL1L
aL0L
aL0L
aL0L
aL0L
aL0L
aL0L
aL0L
aL0L
aL5L
aL4L
aL3L
aL0L
aL1L
aL0L
aL1L
aL0L
aL0L
aL0L
aL0L
aL0L
aL0L
aL0L
aL5L
aL2L
aL0L
aL2L
aL0L
aL0L
aL1L
aL0L
aL0L
aL0L
aL0L
aL0L
aL5L
aL3L
aL3L
aL0L
aL0L
aL0L
aL0L
aL1L
aL0L
aL0L
aL0L
aL0L
aL0L
aL2L
aL1L
aL2L
aL0L
aL2L
aL0L
aL0L
aL1L
aL0L
aL0L
aL0L
aL0L
aL0L
aL3L
aL0L
aL1L
aL1L
aL1L
aL0L
aL1L
aL1L
aL0L
aL0L
aL3L
aL0L
aL0L
aL1L
aL4L
aL2L
aL0L
aL1L
aL0L
aL0L
aL1L
aL0L
aL0L
aL0L
aL0L
aL0L
aL1L
aL3L
aL2L
aL0L
aL2L
aL0L
aL0L
aL1L
aL0L
aL0L
aL0L
aL0L
aL0L
aL1L
aL3L
aL2L
aL0L
aL2L
aL0L
aL0L
aL1L
aL0L
aL0L
aL0L
aL0L
aL0L
aL1L
aL0L
aL2L
aL1L
aL1L
aL2L
aL1L
aL1L
aL0L
aL0L
aL0L
aL0L
aL0L
aL1L
aL3L
aL2L
aL0L
aL2L
aL0L
aL0L
aL1L
aL0L
aL0L
aL0L
aL0L
aL0L
aL5L
aL4L
aL3L
aL0L
aL2L
aL0L
aL1L
aL1L
aL0L
aL0L
aL0L
aL0L
aL0L
aL1L
aL3L
aL2L
aL0L
aL2L
aL0L
aL0L
aL1L
aL0L
aL0L
aL0L
aL0L
aL0L
aL2L
aL3L
aL2L
aL0L
aL0L
aL0L
aL0L
aL1L
aL0L
aL0L
aL0L
aL0L
aL0L
aL3L
aL0L
aL1L
aL0L
aL2L
aL0L
aL1L
aL1L
aL0L
aL0L
aL0L
aL0L
aL0L
aL0L
aL5L
aL2L
aL0L
aL2L
aL0L
aL0L
aL1L
aL0L
aL0L
aL0L
aL0L
aL0L
aL2L
aL0L
aL1L
aL0L
aL2L
aL0L
aL0L
aL1L
aL0L
aL0L
aL0L
aL0L
aL0L
aL3L
aL2L
aL1L
aL0L
aL2L
aL0L
aL1L
aL1L
aL1L
aL0L
aL1L
aL0L
aL0L
aL3L
aL0L
aL1L
aL1L
aL2L
aL0L
aL1L
aL1L
aL0L
aL0L
aL4L
aL4L
aL0L
aL5L
aL0L
aL3L
aL0L
aL1L
aL0L
aL1L
aL1L
aL0L
aL0L
aL0L
aL0L
aL0L
aL0L
aL5L
aL2L
aL0L
aL2L
aL0L
aL0L
aL1L
aL0L
aL0L
aL0L
aL0L
aL0L
aL2L
aL4L
aL2L
aL0L
aL2L
aL0L
aL0L
aL1L
aL0L
aL0L
aL2L
aL2L
aL0L
aL5L
aL4L
aL3L
aL0L
aL1L
aL0L
aL1L
aL1L
aL0L
aL0L
aL0L
aL0L
aL0L
aL0L
aL5L
aL2L
aL0L
aL2L
aL0L
aL0L
aL1L
aL0L
aL0L
aL0L
aL0L
aL0L
aL4L
aL4L
aL2L
aL0L
aL0L
aL0L
aL1L
aL1L
aL0L
aL0L
aL0L
aL0L
aL0L
aL5L
aL4L
aL3L
aL0L
aL0L
aL0L
aL1L
aL1L
aL0L
aL0L
aL0L
aL0L
aL0L
aL3L
aL0L
aL2L
aL0L
aL1L
aL0L
aL1L
aL1L
aL0L
aL0L
aL1L
aL0L
aL0L
aL5L
aL4L
aL3L
aL0L
aL0L
aL0L
aL0L
aL1L
aL0L
aL0L
aL0L
aL0L
aL0L
aL5L
aL1L
aL3L
aL0L
aL1L
aL0L
aL0L
aL0L
aL0L
aL0L
aL0L
aL0L
aL0L
aL2L
aL4L
aL1L
aL0L
aL2L
aL0L
aL0L
aL1L
aL0L
aL0L
aL0L
aL0L
aL0L
aL2L
aL4L
aL2L
aL0L
aL2L
aL0L
aL0L
aL1L
aL0L
aL0L
aL0L
aL0L
aL0L
aL3L
aL0L
aL1L
aL0L
aL2L
aL0L
aL1L
aL1L
aL0L
aL0L
aL1L
aL0L
aL0L
aL2L
aL0L
aL2L
aL0L
aL2L
aL0L
aL1L
aL1L
aL0L
aL0L
aL1L
aL0L
aL0L
aL2L
aL3L
aL2L
aL0L
aL2L
aL0L
aL1L
aL1L
aL0L
aL0L
aL0L
aL0L
aL0L
aL0L
aL5L
aL1L
aL0L
aL1L
aL0L
aL0L
aL1L
aL0L
aL0L
aL0L
aL0L
aL0L
aL5L
aL4L
aL3L
aL0L
aL2L
aL0L
aL0L
aL0L
aL0L
aL0L
aL2L
aL0L
aL0L
aL3L
aL2L
aL0L
aL1L
aL1L
aL2L
aL1L
aL1L
aL1L
aL0L
aL0L
aL0L
aL0L
aL2L
aL0L
aL1L
aL0L
aL1L
aL0L
aL1L
aL1L
aL0L
aL0L
aL0L
aL0L
aL0L
aL5L
aL4L
aL3L
aL0L
aL1L
aL0L
aL0L
aL1L
aL0L
aL0L
aL0L
aL0L
aL0L
aL1L
aL4L
aL2L
aL0L
aL0L
aL0L
aL0L
aL1L
aL0L
aL0L
aL0L
aL0L
aL0L
aL1L
aL4L
aL2L
aL0L
aL2L
aL0L
aL1L
aL1L
aL0L
aL0L
aL0L
aL0L
aL0L
aL3L
aL0L
aL2L
aL0L
aL1L
aL0L
aL1L
aL1L
aL0L
aL0L
aL1L
aL0L
aL0L
aL1L
aL3L
aL2L
aL0L
aL1L
aL0L
aL1L
aL1L
aL0L
aL0L
aL0L
aL0L
aL0L
aL5L
aL4L
aL3L
aL0L
aL1L
aL0L
aL0L
aL1L
aL0L
aL0L
aL0L
aL0L
aL0L
aL4L
aL4L
aL2L
aL1L
aL1L
aL0L
aL0L
aL1L
aL0L
aL0L
aL0L
aL0L
aL0L
aL5L
aL4L
aL3L
aL0L
aL2L
aL0L
aL0L
aL1L
aL0L
aL0L
aL0L
aL0L
aL0L
aL5L
aL3L
aL3L
aL0L
aL1L
aL0L
aL0L
aL1L
aL0L
aL0L
aL0L
aL0L
aL0L
aL0L
aL5L
aL2L
aL0L
aL1L
aL0L
aL1L
aL1L
aL0L
aL0L
aL0L
aL0L
aL0L
aL1L
aL3L
aL2L
aL0L
aL2L
aL0L
aL0L
aL1L
aL0L
aL0L
aL0L
aL0L
aL0L
aL0L
aL5L
aL2L
aL0L
aL1L
aL0L
aL0L
aL1L
aL0L
aL0L
aL0L
aL0L
aL0L
aL5L
aL4L
aL3L
aL0L
aL1L
aL0L
aL0L
aL1L
aL0L
aL0L
aL1L
aL0L
aL0L
aL5L
aL4L
aL3L
aL0L
aL2L
aL0L
aL0L
aL1L
aL0L
aL0L
aL0L
aL0L
aL0L
aL5L
aL4L
aL3L
aL0L
aL1L
aL0L
aL1L
aL1L
aL0L
aL0L
aL0L
aL0L
aL0L
aL5L
aL4L
aL3L
aL0L
aL2L
aL0L
aL1L
aL1L
aL0L
aL0L
aL0L
aL0L
aL0L
aL5L
aL4L
aL3L
aL0L
aL2L
aL0L
aL0L
aL1L
aL0L
aL0L
aL0L
aL0L
aL0L
aL2L
aL4L
aL2L
aL1L
aL1L
aL2L
aL1L
aL1L
aL0L
aL0L
aL0L
aL0L
aL0L
aL5L
aL4L
aL3L
aL0L
aL2L
aL0L
aL1L
aL0L
aL0L
aL0L
aL0L
aL0L
aL0L
aL5L
aL0L
aL3L
aL0L
aL1L
aL0L
aL1L
aL1L
aL0L
aL0L
aL0L
aL0L
aL0L
aL0L
aL5L
aL2L
aL0L
aL2L
aL0L
aL0L
aL1L
aL0L
aL0L
aL0L
aL0L
aL0L
aL0L
aL5L
aL2L
aL0L
aL2L
aL0L
aL0L
aL1L
aL0L
aL0L
aL0L
aL0L
aL0L
aL2L
aL3L
aL1L
aL0L
aL2L
aL0L
aL0L
aL1L
aL0L
aL0L
aL1L
aL0L
aL0L
aL2L
aL0L
aL1L
aL0L
aL2L
aL0L
aL0L
aL1L
aL0L
aL0L
aL1L
aL0L
aL0L
aL1L
aL3L
aL2L
aL0L
aL1L
aL0L
aL1L
aL1L
aL0L
aL0L
aL0L
aL0L
aL0L
aL0L
aL5L
aL2L
aL0L
aL2L
aL0L
aL0L
aL1L
aL0L
aL0L
aL0L
aL0L
aL0L
aL4L
aL0L
aL1L
aL0L
aL1L
aL0L
aL1L
aL1L
aL0L
aL0L
aL0L
aL0L
aL0L
aL0L
aL5L
aL1L
aL0L
aL1L
aL0L
aL1L
aL1L
aL0L
aL0L
aL1L
aL0L
aL0L
aL5L
aL4L
aL3L
aL0L
aL2L
aL0L
aL0L
aL0L
aL0L
aL0L
aL0L
aL0L
aL0L
aL5L
aL3L
aL3L
aL0L
aL0L
aL0L
aL0L
aL1L
aL0L
aL0L
aL0L
aL0L
aL0L
aL5L
aL0L
aL3L
aL0L
aL1L
aL0L
aL1L
aL1L
aL0L
aL0L
aL0L
aL0L
aL0L
aL3L
aL4L
aL2L
aL0L
aL1L
aL0L
aL0L
aL1L
aL0L
aL0L
aL0L
aL0L
aL0L
aL2L
aL0L
aL1L
aL0L
aL2L
aL0L
aL1L
aL1L
aL0L
aL0L
aL0L
aL0L
aL0L
aL0L
aL5L
aL2L
aL1L
aL2L
aL0L
aL0L
aL1L
aL0L
aL0L
aL0L
aL0L
aL0L
aL2L
aL1L
aL2L
aL0L
aL1L
aL0L
aL1L
aL1L
aL0L
aL0L
aL0L
aL0L
aL0L
aL5L
aL4L
aL3L
aL0L
aL1L
aL0L
aL1L
aL0L
aL0L
aL0L
aL0L
aL0L
aL0L
aL1L
aL4L
aL2L
aL0L
aL1L
aL0L
aL1L
aL1L
aL0L
aL0L
aL0L
aL0L
aL0L
aL1L
aL4L
aL1L
aL0L
aL1L
aL0L
aL0L
aL1L
aL0L
aL0L
aL0L
aL0L
aL0L
aL5L
aL3L
aL3L
aL0L
aL1L
aL0L
aL0L
aL1L
aL0L
aL0L
aL0L
aL0L
aL0L
aL5L
aL3L
aL3L
aL0L
aL2L
aL0L
aL0L
aL1L
aL0L
aL0L
aL0L
aL0L
aL0L
aL5L
aL4L
aL3L
aL0L
aL1L
aL0L
aL1L
aL0L
aL0L
aL0L
aL0L
aL0L
aL0L
aL4L
aL0L
aL1L
aL1L
aL1L
aL0L
aL1L
aL1L
aL0L
aL0L
aL0L
aL0L
aL0L
aL5L
aL1L
aL3L
aL0L
aL2L
aL0L
aL1L
aL0L
aL0L
aL0L
aL0L
aL0L
aL0L
aL1L
aL4L
aL1L
aL0L
aL2L
aL0L
aL0L
aL1L
aL0L
aL0L
aL0L
aL0L
aL0L
aL2L
aL3L
aL0L
aL1L
aL2L
aL0L
aL0L
aL1L
aL0L
aL0L
aL1L
aL0L
aL0L
aL1L
aL3L
aL2L
aL0L
aL1L
aL0L
aL0L
aL1L
aL0L
aL0L
aL0L
aL0L
aL0L
aL5L
aL4L
aL3L
aL0L
aL0L
aL0L
aL0L
aL1L
aL0L
aL0L
aL0L
aL0L
aL0L
aL2L
aL4L
aL2L
aL0L
aL1L
aL0L
aL1L
aL1L
aL0L
aL0L
aL0L
aL0L
aL0L
aL1L
aL3L
aL2L
aL0L
aL2L
aL0L
aL0L
aL1L
aL0L
aL0L
aL0L
aL0L
aL0L
aL5L
aL4L
aL3L
aL0L
aL0L
aL0L
aL0L
aL1L
aL0L
aL0L
aL0L
aL0L
aL0L
aL1L
aL4L
aL1L
aL0L
aL2L
aL0L
aL0L
aL1L
aL0L
aL0L
aL0L
aL0L
aL0L
aL0L
aL5L
aL2L
aL0L
aL2L
aL0L
aL0L
aL1L
aL0L
aL0L
aL0L
aL0L
aL0L
aL5L
aL4L
aL3L
aL0L
aL2L
aL0L
aL0L
aL0L
aL0L
aL0L
aL0L
aL0L
aL0L
aL5L
aL4L
aL3L
aL0L
aL2L
aL0L
aL1L
aL0L
aL0L
aL0L
aL0L
aL0L
aL0L
aL5L
aL4L
aL3L
aL0L
aL2L
aL0L
aL1L
aL1L
aL0L
aL0L
aL0L
aL0L
aL0L
aL2L
aL0L
aL1L
aL0L
aL2L
aL0L
aL0L
aL1L
aL0L
aL0L
aL0L
aL0L
aL0L
aL3L
aL4L
aL1L
aL0L
aL1L
aL0L
aL1L
aL1L
aL0L
aL0L
aL0L
aL0L
aL0L
aL2L
aL3L
aL1L
aL1L
aL2L
aL0L
aL1L
aL1L
aL0L
aL0L
aL1L
aL0L
aL0L
aL1L
aL3L
aL2L
aL0L
aL2L
aL0L
aL0L
aL1L
aL0L
aL0L
aL0L
aL0L
aL0L
aL3L
aL0L
aL2L
aL0L
aL1L
aL0L
aL1L
aL1L
aL0L
aL0L
aL0L
aL1L
aL0L
aL2L
aL3L
aL1L
aL0L
aL2L
aL0L
aL0L
aL1L
aL0L
aL0L
aL0L
aL0L
aL0L
aL5L
aL4L
aL3L
aL0L
aL0L
aL0L
aL0L
aL0L
aL0L
aL0L
aL0L
aL0L
aL0L
aL0L
aL5L
aL2L
aL0L
aL2L
aL0L
aL0L
aL1L
aL0L
aL0L
aL0L
aL0L
aL0L
aL1L
aL3L
aL2L
aL0L
aL2L
aL0L
aL0L
aL1L
aL0L
aL0L
aL0L
aL0L
aL0L
aL1L
aL3L
aL2L
aL0L
aL1L
aL0L
aL0L
aL1L
aL0L
aL0L
aL0L
aL0L
aL0L
aL0L
aL5L
aL2L
aL0L
aL2L
aL0L
aL0L
aL1L
aL0L
aL0L
aL0L
aL0L
aL0L
aL5L
aL4L
aL3L
aL0L
aL2L
aL0L
aL0L
aL0L
aL0L
aL0L
aL0L
aL0L
aL0L
aL5L
aL4L
aL3L
aL0L
aL2L
aL0L
aL0L
aL1L
aL0L
aL0L
aL0L
aL0L
aL0L
aL5L
aL4L
aL3L
aL0L
aL2L
aL0L
aL0L
aL0L
aL0L
aL0L
aL0L
aL0L
aL0L
aL1L
aL4L
aL1L
aL0L
aL2L
aL0L
aL0L
aL1L
aL0L
aL0L
aL1L
aL0L
aL0L
aL0L
aL5L
aL2L
aL0L
aL1L
aL0L
aL0L
aL1L
aL0L
aL0L
aL0L
aL0L
aL0L
aL5L
aL4L
aL3L
aL0L
aL0L
aL0L
aL1L
aL1L
aL0L
aL0L
aL0L
aL0L
aL0L
aL1L
aL3L
aL2L
aL0L
aL2L
aL0L
aL0L
aL1L
aL0L
aL0L
aL0L
aL0L
aL0L
aL0L
aL5L
aL2L
aL0L
aL2L
aL0L
aL0L
aL1L
aL0L
aL0L
aL0L
aL0L
aL0L
aL1L
aL3L
aL2L
aL0L
aL0L
aL0L
aL0L
aL1L
aL0L
aL0L
aL0L
aL0L
aL0L
aL1L
aL4L
aL2L
aL1L
aL1L
aL2L
aL1L
aL1L
aL0L
aL0L
aL1L
aL0L
aL0L
aL2L
aL0L
aL1L
aL0L
aL0L
aL0L
aL1L
aL1L
aL0L
aL0L
aL1L
aL1L
aL0L
aL5L
aL0L
aL3L
aL0L
aL1L
aL0L
aL1L
aL1L
aL0L
aL0L
aL0L
aL0L
aL0L
aL2L
aL3L
aL2L
aL0L
aL1L
aL0L
aL0L
aL1L
aL0L
aL0L
aL0L
aL0L
aL0L
aL1L
aL4L
aL2L
aL0L
aL2L
aL0L
aL0L
aL1L
aL0L
aL0L
aL0L
aL0L
aL0L
aL5L
aL4L
aL3L
aL0L
aL2L
aL0L
aL0L
aL1L
aL0L
aL0L
aL1L
aL0L
aL0L
aL3L
aL2L
aL1L
aL0L
aL1L
aL0L
aL1L
aL1L
aL0L
aL0L
aL1L
aL0L
aL0L
aL3L
aL0L
aL1L
aL1L
aL2L
aL0L
aL1L
aL1L
aL0L
aL0L
aL2L
aL0L
aL0L
aL0L
aL5L
aL2L
aL0L
aL2L
aL0L
aL0L
aL1L
aL0L
aL0L
aL0L
aL0L
aL0L
atp15
ba.